(lp0
(lp1
F2.0
aF2.0
aF2.0
aF2.0
aF2.0
aF2.0
aF2.0
aF2.0
aF2.0
aF2.0
aF2.0
aF2.0
aF2.0
aF2.0
aF2.0
aF2.0
aF-1.0
aF-1.0
aF2.0
aF-1.0
aF-1.0
aF2.0
aF2.0
aF-1.0
aF-1.0
aF-1.0
aF2.0
aF2.0
aF2.0
aF-1.0
aF2.0
aF2.0
aF2.0
aF2.0
aF2.0
aF-1.0
aF2.0
aF2.0
aF2.0
aF2.0
aF2.0
aF-1.0
aF-1.0
aF2.0
aF2.0
aF-1.0
aF2.0
aF2.0
aF-1.0
aF2.0
aF-1.0
aF2.0
aF2.0
aF2.0
aF2.0
aF2.0
aF2.0
aF-1.0
aF2.0
aF2.0
aF2.0
aF-1.0
aF-1.0
aF2.0
aF2.0
aF-1.0
aF2.0
aF-1.0
aF-1.0
aF2.0
aF2.0
aF2.0
aF2.0
aF2.0
aF2.0
aF2.0
aF2.0
aF2.0
aF2.0
aF-1.0
aF2.0
aF-1.0
aF2.0
aF2.0
aF2.0
aF2.0
aF-1.0
aF2.0
aF-1.0
aF-1.0
aF-1.0
aF-1.0
aF2.0
aF2.0
aF2.0
aF2.0
aF2.0
aF2.0
aF2.0
aF2.0
aF-1.0
aF2.0
aF2.0
aF2.0
aF2.0
aF2.0
aF2.0
aF2.0
aF-1.0
aF2.0
aF2.0
aF2.0
aF2.0
aF-1.0
aF-1.0
aF-1.0
aF2.0
aF2.0
aF2.0
aF2.0
aF2.0
aF2.0
aF2.0
aF2.0
aF-1.0
aF-1.0
aF-1.0
aF2.0
aF2.0
aF-1.0
aF2.0
aF2.0
aF-1.0
aF2.0
aF2.0
aF2.0
aF-1.0
aF2.0
aF-1.0
aF-1.0
aF2.0
aF-1.0
aF2.0
aF-1.0
aF-1.0
aF2.0
aF-1.0
aF2.0
aF2.0
aF2.0
aF2.0
aF-1.0
aF-1.0
aF2.0
aF2.0
aF-1.0
aF2.0
aF-1.0
aF2.0
aF2.0
aF2.0
aF2.0
aF2.0
aF2.0
aF-1.0
aF-1.0
aF2.0
aF-1.0
aF2.0
aF2.0
aF2.0
aF-1.0
aF2.0
aF2.0
aF2.0
aF2.0
aF2.0
aF-1.0
aF-1.0
aF-1.0
aF-1.0
aF2.0
aF-1.0
aF2.0
aF-1.0
aF2.0
aF-1.0
aF2.0
aF2.0
aF2.0
aF2.0
aF2.0
aF-1.0
aF2.0
aF2.0
aF2.0
aF2.0
aF2.0
aF2.0
aF-1.0
aF2.0
aF-1.0
aF-1.0
aF2.0
aF2.0
aF-1.0
aF2.0
aF2.0
aF-1.0
aF2.0
aF-1.0
aF-1.0
aF-1.0
aF2.0
aF2.0
aF-1.0
aF2.0
aF2.0
aF2.0
aF2.0
aF2.0
aF-1.0
aF-1.0
aF2.0
aF-1.0
aF2.0
aF2.0
aF2.0
aF2.0
aF2.0
aF2.0
aF2.0
aF2.0
aF2.0
aF2.0
aF-1.0
aF-1.0
aF2.0
aF2.0
aF2.0
aF2.0
aF-1.0
aF2.0
aF2.0
aF2.0
aF2.0
aF-1.0
aF-1.0
aF2.0
aF2.0
aF2.0
aF2.0
aF2.0
aF2.0
aF2.0
aF2.0
aF2.0
aF-3.0
aF2.0
aF2.0
aF2.0
aF-1.0
aF2.0
aF2.0
aF2.0
aF2.0
aF2.0
aF2.0
aF2.0
aF2.0
aF-1.0
aF-1.0
aF-1.0
aF2.0
aF-1.0
aF-1.0
aF2.0
aF2.0
aF2.0
aF-1.0
aF2.0
aF2.0
aF-1.0
aF-1.0
aF-1.0
aF2.0
aF2.0
aF2.0
aF-1.0
aF2.0
aF-1.0
aF2.0
aF2.0
aF2.0
aF2.0
aF2.0
aF-1.0
aF2.0
aF2.0
aF-1.0
aF-1.0
aF2.0
aF-1.0
aF2.0
aF2.0
aF2.0
aF2.0
aF-1.0
aF2.0
aF2.0
aF2.0
aF-1.0
aF-1.0
aF-1.0
aF2.0
aF2.0
aF-1.0
aF2.0
aF-1.0
aF2.0
aF2.0
aF2.0
aF-1.0
aF2.0
aF2.0
aF2.0
aF-1.0
aF2.0
aF2.0
aF-1.0
aF2.0
aF2.0
aF-1.0
aF2.0
aF-1.0
aF2.0
aF2.0
aF2.0
aF2.0
aF-1.0
aF2.0
aF2.0
aF2.0
aF-1.0
aF2.0
aF2.0
aF2.0
aF-1.0
aF2.0
aF2.0
aF2.0
aF2.0
aF2.0
aF-1.0
aF-1.0
aF-1.0
aF2.0
aF2.0
aF2.0
aF2.0
aF2.0
aF2.0
aF-1.0
aF2.0
aF2.0
aF2.0
aF2.0
aF-1.0
aF-1.0
aF-1.0
aF2.0
aF2.0
aF-1.0
aF-1.0
aF-1.0
aF2.0
aF2.0
aF-1.0
aF-1.0
aF-1.0
aF-1.0
aF2.0
aF2.0
aF-1.0
aF2.0
aF2.0
aF2.0
aF2.0
aF2.0
aF2.0
aF-1.0
aF2.0
aF2.0
aF2.0
aF-1.0
aF-1.0
aF-1.0
aF2.0
aF2.0
aF2.0
aF2.0
aF-1.0
aF2.0
aF-1.0
aF2.0
aF2.0
aF2.0
aF-1.0
aF2.0
aF-3.0
aF2.0
aF-1.0
aF2.0
aF2.0
aF2.0
aF2.0
aF2.0
aF2.0
aF2.0
aF2.0
aF-1.0
aF-1.0
aF-1.0
aF-1.0
aF2.0
aF2.0
aF2.0
aF-1.0
aF-1.0
aF-1.0
aF2.0
aF-1.0
aF2.0
aF2.0
aF2.0
aF2.0
aF-1.0
aF-1.0
aF2.0
aF2.0
aF2.0
aF-1.0
aF-1.0
aF-1.0
aF2.0
aF2.0
aF2.0
aF2.0
aF2.0
aF2.0
aF-1.0
aF-1.0
aF-1.0
aF-1.0
aF2.0
aF2.0
aF2.0
aF2.0
aF2.0
aF-1.0
aF2.0
aF2.0
aF-1.0
aF2.0
aF2.0
aF-1.0
aF2.0
aF-1.0
aF2.0
aF-1.0
aF-1.0
aF-1.0
aF-1.0
aF2.0
aF2.0
aF-1.0
aF2.0
aF-1.0
aF-1.0
aF2.0
aF-1.0
aF2.0
aF2.0
aF-1.0
aF2.0
aF2.0
aF-1.0
aF-1.0
aF-1.0
aF2.0
aF-1.0
aF2.0
aF-1.0
aF2.0
aF-1.0
aF-1.0
aF2.0
aF2.0
aF2.0
aF2.0
aF2.0
aF-1.0
aF2.0
aF-1.0
aF-1.0
aF-1.0
aF2.0
aF2.0
aF2.0
aF-1.0
aF-1.0
aF-1.0
aF2.0
aF2.0
aF2.0
aF2.0
aF2.0
aF2.0
aF-1.0
aF-1.0
aF-1.0
aF-1.0
aF2.0
aF-1.0
aF-1.0
aF2.0
aF-1.0
aF-1.0
aF2.0
aF2.0
aF2.0
aF-1.0
aF2.0
aF2.0
aF-1.0
aF-1.0
aF2.0
aF-1.0
aF-1.0
aF-1.0
aF2.0
aF2.0
aF2.0
aF2.0
aF2.0
aF-1.0
aF2.0
aF2.0
aF2.0
aF-1.0
aF-1.0
aF-1.0
aF2.0
aF-1.0
aF2.0
aF2.0
aF-1.0
aF-1.0
aF2.0
aF2.0
aF2.0
aF2.0
aF2.0
aF2.0
aF2.0
aF2.0
aF-1.0
aF2.0
aF2.0
aF-1.0
aF2.0
aF2.0
aF-1.0
aF2.0
aF2.0
aF2.0
aF-1.0
aF2.0
aF2.0
aF-1.0
aF2.0
aF2.0
aF-1.0
aF-1.0
aF-1.0
aF2.0
aF-1.0
aF2.0
aF-1.0
aF2.0
aF2.0
aF2.0
aF2.0
aF2.0
aF-1.0
aF2.0
aF-1.0
aF2.0
aF2.0
aF2.0
aF-1.0
aF2.0
aF2.0
aF2.0
aF-1.0
aF2.0
aF-1.0
aF2.0
aF2.0
aF2.0
aF-1.0
aF-1.0
aF2.0
aF2.0
aF2.0
aF2.0
aF2.0
aF2.0
aF-1.0
aF-1.0
aF2.0
aF2.0
aF2.0
aF2.0
aF2.0
aF2.0
aF2.0
aF-1.0
aF-1.0
aF-1.0
aF-1.0
aF-1.0
aF2.0
aF2.0
aF-1.0
aF2.0
aF-1.0
aF-1.0
aF2.0
aF2.0
aF-1.0
aF-1.0
aF2.0
aF2.0
aF-1.0
aF-1.0
aF2.0
aF-1.0
aF2.0
aF2.0
aF2.0
aF-1.0
aF2.0
aF2.0
aF-1.0
aF-1.0
aF2.0
aF2.0
aF-1.0
aF-1.0
aF2.0
aF-1.0
aF2.0
aF2.0
aF-1.0
aF2.0
aF2.0
aF2.0
aF2.0
aF2.0
aF2.0
aF2.0
aF2.0
aF-1.0
aF2.0
aF2.0
aF2.0
aF2.0
aF2.0
aF2.0
aF2.0
aF2.0
aF-1.0
aF2.0
aF-1.0
aF2.0
aF2.0
aF2.0
aF2.0
aF2.0
aF2.0
aF-1.0
aF2.0
aF2.0
aF2.0
aF2.0
aF2.0
aF2.0
aF-1.0
aF2.0
aF2.0
aF2.0
aF2.0
aF2.0
aF2.0
aF2.0
aF2.0
aF2.0
aF2.0
aF2.0
aF-1.0
aF2.0
aF-1.0
aF2.0
aF-1.0
aF-1.0
aF2.0
aF2.0
aF-1.0
aF-1.0
aF2.0
aF-1.0
aF-1.0
aF2.0
aF-1.0
aF2.0
aF2.0
aF2.0
aF2.0
aF2.0
aF-1.0
aF-1.0
aF2.0
aF-1.0
aF2.0
aF-1.0
aF2.0
aF2.0
aF2.0
aF2.0
aF-1.0
aF-1.0
aF2.0
aF2.0
aF-1.0
aF-1.0
aF2.0
aF2.0
aF-1.0
aF-1.0
aF2.0
aF2.0
aF2.0
aF2.0
aF-1.0
aF2.0
aF2.0
aF2.0
aF-1.0
aF2.0
aF2.0
aF-1.0
aF2.0
aF2.0
aF2.0
aF2.0
aF2.0
aF-1.0
aF-1.0
aF2.0
aF2.0
aF2.0
aF-1.0
aF-1.0
aF2.0
aF2.0
aF2.0
aF2.0
aF-1.0
aF-1.0
aF2.0
aF-1.0
aF2.0
aF-1.0
aF-1.0
aF-1.0
aF-1.0
aF2.0
aF-1.0
aF-1.0
aF-1.0
aF2.0
aF-1.0
aF2.0
aF-1.0
aF-1.0
aF2.0
aF-1.0
aF2.0
aF2.0
aF2.0
aF2.0
aF2.0
aF2.0
aF-1.0
aF-1.0
aF2.0
aF2.0
aF2.0
aF2.0
aF2.0
aF2.0
aF2.0
aF-1.0
aF2.0
aF2.0
aF-1.0
aF-1.0
aF2.0
aF2.0
aF2.0
aF-1.0
aF-1.0
aF-1.0
aF-1.0
aF-1.0
aF2.0
aF-1.0
aF-1.0
aF-1.0
aF2.0
aF2.0
aF-1.0
aF-1.0
aF2.0
aF2.0
aF2.0
aF2.0
aF-1.0
aF2.0
aF2.0
aF-1.0
aF2.0
aF2.0
aF-1.0
aF-1.0
aF2.0
aF-1.0
aF-1.0
aF-1.0
aF-1.0
aF-1.0
aF-1.0
aF2.0
aF2.0
aF-1.0
aF2.0
aF2.0
aF-1.0
aF-1.0
aF2.0
aF2.0
aF2.0
aF2.0
aF-1.0
aF-1.0
aF2.0
aF2.0
aF2.0
aF2.0
aF2.0
aF2.0
aF2.0
aF2.0
aF2.0
aF-1.0
aF-1.0
aF-1.0
aF2.0
aF2.0
aF2.0
aF2.0
aF2.0
aF-1.0
aF-1.0
aF2.0
aF2.0
aF2.0
aF-1.0
aF2.0
aF2.0
aF2.0
aF-1.0
aF-1.0
aF-1.0
aF2.0
aF2.0
aF2.0
aF2.0
aF2.0
aF2.0
aF2.0
aF2.0
aF2.0
aF2.0
aF2.0
aF2.0
aF-1.0
aF-1.0
aF2.0
aF-1.0
aF-1.0
aF2.0
aF-1.0
aF2.0
aF2.0
aF-1.0
aF-1.0
aF2.0
aF2.0
aF2.0
aF-1.0
aF2.0
aF2.0
aF2.0
aF2.0
aF2.0
aF2.0
aF-1.0
aF2.0
aF-1.0
aF2.0
aF2.0
aF2.0
aF2.0
aF2.0
aF2.0
aF-1.0
aF2.0
aF2.0
aF-1.0
aF2.0
aF2.0
aF-1.0
aF2.0
aF-1.0
aF-1.0
aF2.0
aF2.0
aF-1.0
aF2.0
aF-1.0
aF2.0
aF-1.0
aF2.0
aF2.0
aF-1.0
aF-1.0
aF2.0
aF2.0
aF2.0
aF-1.0
aF-1.0
aF2.0
aF2.0
aF2.0
aF2.0
aF2.0
aF2.0
aF-1.0
aF-1.0
aF2.0
aF-1.0
aF2.0
aF2.0
aF-1.0
aF2.0
aF2.0
aF-1.0
aF-1.0
aF-1.0
aF2.0
aF-1.0
aF2.0
aF2.0
aF-1.0
aF2.0
aF2.0
aF-1.0
aF-1.0
aF2.0
aF2.0
aF2.0
aF2.0
aF2.0
aF-1.0
aF2.0
aF2.0
aF2.0
aF2.0
aF2.0
aF2.0
aF2.0
aF2.0
aF2.0
aF2.0
aF2.0
aF2.0
aF2.0
aF-1.0
aF2.0
aF-1.0
aF-1.0
aF-1.0
aF2.0
aF2.0
aF2.0
aF2.0
aF2.0
aF-1.0
aF-1.0
aF2.0
aF2.0
aF-1.0
aF2.0
aF2.0
aF2.0
aF2.0
aF2.0
aF-1.0
aF2.0
aF2.0
aF2.0
aF2.0
aF-1.0
aF2.0
aF2.0
aF2.0
aF2.0
aF2.0
aF2.0
aF2.0
aF2.0
aF2.0
aF-1.0
aF2.0
aF-1.0
aF2.0
aF2.0
aF2.0
aF-1.0
aF-1.0
aF-1.0
aF-1.0
aF2.0
aF2.0
aF2.0
aF-1.0
aF2.0
aF2.0
aF-1.0
aF2.0
aF-1.0
aF2.0
aF-1.0
aF-1.0
aF2.0
aF2.0
aF-1.0
aF-1.0
aF2.0
aF2.0
aF-1.0
aF2.0
aF2.0
aF2.0
aF2.0
aF-1.0
aF2.0
aF-1.0
aF-1.0
aF2.0
aF-1.0
aF2.0
aF-1.0
aF2.0
aF-1.0
aF2.0
aF2.0
aF-1.0
aF2.0
aF2.0
aF2.0
aF2.0
aF2.0
aF-1.0
aF2.0
aF2.0
aF2.0
aF2.0
aF2.0
aF2.0
aF-1.0
aF2.0
aF-1.0
aF2.0
aF2.0
aF2.0
aF2.0
aF-1.0
aF2.0
aF-1.0
aF-1.0
aF2.0
aF2.0
aF2.0
aF-1.0
aF-1.0
aF-1.0
aF-1.0
aF-1.0
aF-1.0
aF2.0
aF2.0
aF-1.0
aF-1.0
aF2.0
aF-1.0
aF2.0
aF2.0
aF2.0
aF2.0
aF2.0
aF-1.0
aF-1.0
aF-1.0
aF2.0
aF2.0
aF2.0
aF2.0
aF2.0
aF2.0
aF2.0
aF2.0
aF-1.0
aF2.0
aF-1.0
aF-1.0
aF-1.0
aF2.0
aF2.0
aF2.0
aF-1.0
aF2.0
aF-1.0
aF2.0
aF2.0
aF2.0
aF-1.0
aF2.0
aF2.0
aF-1.0
aF-1.0
aF-1.0
aF2.0
aF2.0
aF2.0
aF2.0
aF-1.0
aF2.0
aF2.0
aF2.0
aF-1.0
aF-1.0
aF2.0
aF2.0
aF-1.0
aF-1.0
aF-1.0
aF-1.0
aF2.0
aF2.0
aF2.0
aF2.0
aF-1.0
aF-1.0
aF2.0
aF2.0
aF-1.0
aF-1.0
aF2.0
aF2.0
aF2.0
aF-1.0
aF2.0
aF2.0
aF2.0
aF-1.0
aF2.0
aF-1.0
aF2.0
aF2.0
aF-1.0
aF2.0
aF2.0
aF-1.0
aF-1.0
aF-1.0
aF-1.0
aF2.0
aF2.0
aF2.0
aF2.0
aF2.0
aF-1.0
aF2.0
aF-1.0
aF-1.0
aF-1.0
aF-1.0
aF-1.0
aF2.0
aF-1.0
aF-1.0
aF2.0
aF2.0
aF2.0
aF2.0
aF-1.0
aF-1.0
aF2.0
aF2.0
aF-1.0
aF2.0
aF2.0
aF2.0
aF-1.0
aF2.0
aF2.0
aF-1.0
aF2.0
aF2.0
aF2.0
aF-1.0
aF2.0
aF2.0
aF2.0
aF2.0
aF2.0
aF2.0
aF-1.0
aF2.0
aF2.0
aF2.0
aF2.0
aF2.0
aF2.0
aF2.0
aF-1.0
aF2.0
aF2.0
aF2.0
aF-1.0
aF-1.0
aF2.0
aF2.0
aF2.0
aF2.0
aF-1.0
aF2.0
aF-1.0
aF-1.0
aF-1.0
aF2.0
aF2.0
aF2.0
aF2.0
aF2.0
aF2.0
aF2.0
aF2.0
aF-1.0
aF-1.0
aF2.0
aF-1.0
aF2.0
aF2.0
aF2.0
aF2.0
aF-1.0
aF-1.0
aF-1.0
aF-1.0
aF-1.0
aF2.0
aF2.0
aF-1.0
aF-1.0
aF-1.0
aF2.0
aF2.0
aF-1.0
aF2.0
aF2.0
aF2.0
aF-1.0
aF-1.0
aF2.0
aF-1.0
aF2.0
aF2.0
aF2.0
aF-1.0
aF2.0
aF2.0
aF2.0
aF2.0
aF-1.0
aF-1.0
aF2.0
aF2.0
aF2.0
aF2.0
aF2.0
aF-1.0
aF2.0
aF2.0
aF2.0
aF2.0
aF2.0
aF-1.0
aF2.0
aF2.0
aF2.0
aF-1.0
aF-1.0
aF2.0
aF-1.0
aF2.0
aF2.0
aF2.0
aF2.0
aF2.0
aF-1.0
aF2.0
aF2.0
aF-1.0
aF2.0
aF-1.0
aF-1.0
aF2.0
aF2.0
aF2.0
aF2.0
aF-1.0
aF2.0
aF-1.0
aF-1.0
aF-1.0
aF2.0
aF2.0
aF2.0
aF2.0
aF2.0
aF2.0
aF2.0
aF2.0
aF-1.0
aF2.0
aF-1.0
aF-1.0
aF2.0
aF2.0
aF-1.0
aF2.0
aF-1.0
aF-1.0
aF2.0
aF-1.0
aF2.0
aF2.0
aF-1.0
aF2.0
aF2.0
aF2.0
aF2.0
aF2.0
aF-1.0
aF2.0
aF-1.0
aF2.0
aF-1.0
aF2.0
aF-1.0
aF-1.0
aF2.0
aF-1.0
aF-1.0
aF2.0
aF-1.0
aF-1.0
aF-1.0
aF2.0
aF2.0
aF-1.0
aF2.0
aF-1.0
aF2.0
aF-1.0
aF2.0
aF2.0
aF2.0
aF2.0
aF2.0
aF2.0
aF-1.0
aF2.0
aF2.0
aF2.0
aF2.0
aF2.0
aF-1.0
aF2.0
aF2.0
aF2.0
aF2.0
aF-1.0
aF-1.0
aF2.0
aF2.0
aF2.0
aF2.0
aF2.0
aF2.0
aF2.0
aF2.0
aF2.0
aF2.0
aF2.0
aF-1.0
aF2.0
aF-1.0
aF-1.0
aF-1.0
aF2.0
aF2.0
aF2.0
aF2.0
aF2.0
aF-1.0
aF-1.0
aF2.0
aF2.0
aF-1.0
aF-1.0
aF2.0
aF-1.0
aF2.0
aF2.0
aF-1.0
aF-1.0
aF-1.0
aF2.0
aF2.0
aF-1.0
aF2.0
aF-1.0
aF2.0
aF2.0
aF2.0
aF2.0
aF2.0
aF2.0
aF2.0
aF2.0
aF-1.0
aF2.0
aF-1.0
aF2.0
aF-1.0
aF-1.0
aF2.0
aF2.0
aF-1.0
aF2.0
aF2.0
aF-1.0
aF-1.0
aF2.0
aF2.0
aF2.0
aF-1.0
aF-1.0
aF2.0
aF2.0
aF-1.0
aF-1.0
aF2.0
aF-1.0
aF-1.0
aF-1.0
aF-1.0
aF2.0
aF-1.0
aF2.0
aF2.0
aF-1.0
aF2.0
aF-1.0
aF2.0
aF-1.0
aF-1.0
aF2.0
aF2.0
aF2.0
aF2.0
aF-1.0
aF2.0
aF2.0
aF-1.0
aF2.0
aF-1.0
aF2.0
aF2.0
aF2.0
aF2.0
aF2.0
aF2.0
aF-1.0
aF2.0
aF2.0
aF-1.0
aF2.0
aF2.0
aF2.0
aF2.0
aF2.0
aF2.0
aF-1.0
aF-1.0
aF-1.0
aF2.0
aF-1.0
aF-1.0
aF2.0
aF2.0
aF2.0
aF-1.0
aF-1.0
aF2.0
aF2.0
aF2.0
aF2.0
aF2.0
aF2.0
aF2.0
aF2.0
aF2.0
aF2.0
aF2.0
aF-1.0
aF2.0
aF2.0
aF-1.0
aF2.0
aF-1.0
aF-1.0
aF2.0
aF2.0
aF-1.0
aF2.0
aF2.0
aF-1.0
aF-1.0
aF-1.0
aF-1.0
aF-1.0
aF2.0
aF2.0
aF-1.0
aF2.0
aF2.0
aF-1.0
aF2.0
aF-1.0
aF2.0
aF2.0
aF2.0
aF-1.0
aF2.0
aF2.0
aF2.0
aF2.0
aF-1.0
aF-1.0
aF2.0
aF-1.0
aF2.0
aF2.0
aF-1.0
aF-1.0
aF-1.0
aF2.0
aF2.0
aF2.0
aF2.0
aF2.0
aF2.0
aF2.0
aF2.0
aF2.0
aF2.0
aF2.0
aF2.0
aF2.0
aF2.0
aF2.0
aF2.0
aF2.0
aF2.0
aF2.0
aF2.0
aF-1.0
aF2.0
aF2.0
aF2.0
aF2.0
aF2.0
aF2.0
aF-1.0
aF-1.0
aF-1.0
aF-1.0
aF2.0
aF2.0
aF2.0
aF-1.0
aF2.0
aF2.0
aF2.0
aF-1.0
aF2.0
aF-1.0
aF2.0
aF2.0
aF2.0
aF2.0
aF2.0
aF2.0
aF-1.0
aF2.0
aF2.0
aF2.0
aF2.0
aF-1.0
aF2.0
aF2.0
aF-1.0
aF-1.0
aF2.0
aF-1.0
aF2.0
aF2.0
aF-1.0
aF-1.0
aF2.0
aF-1.0
aF2.0
aF-3.0
aF2.0
aF2.0
aF-1.0
aF2.0
aF2.0
aF-1.0
aF-1.0
aF-1.0
aF2.0
aF-1.0
aF2.0
aF2.0
aF2.0
aF2.0
aF2.0
aF-1.0
aF2.0
aF2.0
aF2.0
aF2.0
aF2.0
aF2.0
aF2.0
aF2.0
aF2.0
aF2.0
aF-1.0
aF2.0
aF2.0
aF2.0
aF2.0
aF2.0
aF2.0
aF2.0
aF2.0
aF-1.0
aF-1.0
aF2.0
aF2.0
aF2.0
aF-1.0
aF2.0
aF-1.0
aF2.0
aF2.0
aF2.0
aF-1.0
aF2.0
aF-1.0
aF-1.0
aF2.0
aF-1.0
aF-1.0
aF2.0
aF-1.0
aF2.0
aF2.0
aF2.0
aF-1.0
aF2.0
aF2.0
aF2.0
aF2.0
aF-1.0
aF2.0
aF2.0
aF2.0
aF2.0
aF-1.0
aF-1.0
aF-1.0
aF-1.0
aF2.0
aF-1.0
aF2.0
aF-1.0
aF2.0
aF-1.0
aF2.0
aF-1.0
aF2.0
aF2.0
aF2.0
aF2.0
aF2.0
aF-1.0
aF-1.0
aF-1.0
aF-1.0
aF2.0
aF2.0
aF2.0
aF-1.0
aF2.0
aF2.0
aF-1.0
aF2.0
aF2.0
aF2.0
aF-1.0
aF2.0
aF-1.0
aF2.0
aF2.0
aF2.0
aF2.0
aF2.0
aF2.0
aF-1.0
aF-1.0
aF-1.0
aF-1.0
aF-1.0
aF-1.0
aF2.0
aF2.0
aF2.0
aF2.0
aF2.0
aF2.0
aF2.0
aF2.0
aF-1.0
aF2.0
aF-1.0
aF-1.0
aF2.0
aF2.0
aF2.0
aF2.0
aF2.0
aF2.0
aF2.0
aF2.0
aF2.0
aF-1.0
aF-1.0
aF-1.0
aF2.0
aF2.0
aF2.0
aF2.0
aF2.0
aF-1.0
aF2.0
aF2.0
aF-1.0
aF2.0
aF2.0
aF2.0
aF-1.0
aF-1.0
aF2.0
aF2.0
aF2.0
aF2.0
aF2.0
aF2.0
aF-1.0
aF2.0
aF-1.0
aF-1.0
aF-1.0
aF2.0
aF-1.0
aF2.0
aF2.0
aF2.0
aF2.0
aF2.0
aF-1.0
aF2.0
aF-1.0
aF2.0
aF2.0
aF2.0
aF2.0
aF-1.0
aF2.0
aF-1.0
aF-1.0
aF2.0
aF2.0
aF-1.0
aF-1.0
aF2.0
aF-1.0
aF-1.0
aF2.0
aF2.0
aF-1.0
aF2.0
aF2.0
aF2.0
aF2.0
aF2.0
aF2.0
aF2.0
aF2.0
aF2.0
aF2.0
aF-1.0
aF2.0
aF2.0
aF-1.0
aF2.0
aF2.0
aF2.0
aF2.0
aF2.0
aF2.0
aF-1.0
aF-1.0
aF-1.0
aF2.0
aF2.0
aF2.0
aF2.0
aF2.0
aF2.0
aF-1.0
aF-1.0
aF-1.0
aF2.0
aF-1.0
aF-1.0
aF2.0
aF2.0
aF2.0
aF2.0
aF2.0
aF-1.0
aF2.0
aF2.0
aF2.0
aF-1.0
aF2.0
aF2.0
aF2.0
aF2.0
aF-1.0
aF2.0
aF2.0
aF2.0
aF-1.0
aF2.0
aF-1.0
aF-1.0
aF2.0
aF-1.0
aF2.0
aF-1.0
aF2.0
aF2.0
aF2.0
aF2.0
aF2.0
aF2.0
aF-1.0
aF-1.0
aF2.0
aF2.0
aF2.0
aF2.0
aF2.0
aF-1.0
aF2.0
aF2.0
aF2.0
aF-1.0
aF-1.0
aF-1.0
aF2.0
aF2.0
aF2.0
aF2.0
aF-1.0
aF-1.0
aF-3.0
aF2.0
aF2.0
aF-1.0
aF2.0
aF2.0
aF2.0
aF2.0
aF2.0
aF-1.0
aF2.0
aF2.0
aF2.0
aF-1.0
aF2.0
aF-1.0
aF-1.0
aF2.0
aF-1.0
aF-1.0
aF2.0
aF2.0
aF2.0
aF2.0
aF2.0
aF2.0
aF-1.0
aF2.0
aF-1.0
aF-1.0
aF2.0
aF-1.0
aF2.0
aF2.0
aF2.0
aF-1.0
aF2.0
aF2.0
aF2.0
aF2.0
aF-1.0
aF2.0
aF2.0
aF2.0
aF-1.0
aF2.0
aF2.0
aF2.0
aF2.0
aF2.0
aF-1.0
aF-1.0
aF2.0
aF2.0
aF2.0
aF-1.0
aF-1.0
aF-1.0
aF-1.0
aF2.0
aF2.0
aF2.0
aF-1.0
aF2.0
aF2.0
aF-1.0
aF2.0
aF2.0
aF2.0
aF2.0
aF2.0
aF2.0
aF2.0
aF2.0
aF2.0
aF2.0
aF-1.0
aF-1.0
aF2.0
aF2.0
aF-1.0
aF2.0
aF2.0
aF2.0
aF-1.0
aF-1.0
aF2.0
aF2.0
aF2.0
aF2.0
aF-1.0
aF2.0
aF-1.0
aF2.0
aF-1.0
aF-1.0
aF2.0
aF2.0
aF2.0
aF2.0
aF-1.0
aF-1.0
aF2.0
aF2.0
aF2.0
aF2.0
aF2.0
aF-1.0
aF2.0
aF2.0
aF-1.0
aF2.0
aF2.0
aF-1.0
aF-1.0
aF2.0
aF2.0
aF-1.0
aF2.0
aF2.0
aF2.0
aF2.0
aF2.0
aF2.0
aF2.0
aF-1.0
aF-1.0
aF2.0
aF-1.0
aF2.0
aF-1.0
aF-1.0
aF2.0
aF2.0
aF-1.0
aF2.0
aF2.0
aF2.0
aF2.0
aF-1.0
aF2.0
aF-1.0
aF2.0
aF2.0
aF2.0
aF2.0
aF-1.0
aF2.0
aF2.0
aF2.0
aF-1.0
aF-1.0
aF2.0
aF2.0
aF2.0
aF-1.0
aF2.0
aF2.0
aF2.0
aF2.0
aF2.0
aF2.0
aF2.0
aF2.0
aF2.0
aF2.0
aF2.0
aF2.0
aF2.0
aF2.0
aF-1.0
aF2.0
aF2.0
aF2.0
aF2.0
aF2.0
aF2.0
aF2.0
aF-1.0
aF2.0
aF-1.0
aF2.0
aF2.0
aF2.0
aF2.0
aF2.0
aF2.0
aF2.0
aF2.0
aF2.0
aF-1.0
aF2.0
aF2.0
aF-1.0
aF2.0
aF2.0
aF2.0
aF2.0
aF-1.0
aF2.0
aF2.0
aF-1.0
aF-1.0
aF2.0
aF-1.0
aF2.0
aF2.0
aF2.0
aF-1.0
aF-1.0
aF2.0
aF2.0
aF2.0
aF-1.0
aF2.0
aF2.0
aF-1.0
aF2.0
aF2.0
aF2.0
aF-1.0
aF-1.0
aF2.0
aF2.0
aF2.0
aF2.0
aF2.0
aF2.0
aF2.0
aF2.0
aF2.0
aF-1.0
aF2.0
aF2.0
aF2.0
aF2.0
aF-1.0
aF2.0
aF2.0
aF2.0
aF2.0
aF2.0
aF-1.0
aF-1.0
aF2.0
aF-1.0
aF2.0
aF2.0
aF2.0
aF2.0
aF-1.0
aF-1.0
aF2.0
aF2.0
aF-1.0
aF2.0
aF-1.0
aF2.0
aF-1.0
aF-1.0
aF2.0
aF-1.0
aF-1.0
aF2.0
aF2.0
aF-1.0
aF-1.0
aF2.0
aF2.0
aF-1.0
aF-1.0
aF2.0
aF2.0
aF-1.0
aF-1.0
aF-1.0
aF2.0
aF2.0
aF2.0
aF-1.0
aF-1.0
aF-1.0
aF2.0
aF2.0
aF2.0
aF2.0
aF2.0
aF-1.0
aF2.0
aF2.0
aF2.0
aF2.0
aF-1.0
aF2.0
aF2.0
aF2.0
aF-1.0
aF-1.0
aF2.0
aF2.0
aF2.0
aF2.0
aF-1.0
aF2.0
aF2.0
aF-1.0
aF-1.0
aF2.0
aF2.0
aF2.0
aF2.0
aF2.0
aF-1.0
aF-1.0
aF-1.0
aF-1.0
aF2.0
aF-1.0
aF2.0
aF2.0
aF2.0
aF2.0
aF-1.0
aF-1.0
aF2.0
aF2.0
aF2.0
aF-1.0
aF2.0
aF2.0
aF2.0
aF-1.0
aF2.0
aF2.0
aF2.0
aF-1.0
aF2.0
aF2.0
aF-1.0
aF2.0
aF2.0
aF-1.0
aF2.0
aF2.0
aF2.0
aF2.0
aF2.0
aF2.0
aF-1.0
aF-1.0
aF2.0
aF2.0
aF2.0
aF-1.0
aF2.0
aF2.0
aF-1.0
aF2.0
aF-1.0
aF-1.0
aF2.0
aF2.0
aF-1.0
aF2.0
aF-1.0
aF2.0
aF-1.0
aF-1.0
aF2.0
aF2.0
aF2.0
aF2.0
aF-1.0
aF2.0
aF-1.0
aF2.0
aF2.0
aF2.0
aF2.0
aF2.0
aF-1.0
aF-1.0
aF2.0
aF2.0
aF2.0
aF2.0
aF-1.0
aF-1.0
aF2.0
aF-1.0
aF2.0
aF-1.0
aF2.0
aF2.0
aF-1.0
aF2.0
aF-1.0
aF2.0
aF2.0
aF2.0
aF2.0
aF2.0
aF-1.0
aF2.0
aF2.0
aF-1.0
aF2.0
aF-1.0
aF-1.0
aF-1.0
aF-1.0
aF2.0
aF2.0
aF-1.0
aF-1.0
aF-1.0
aF2.0
aF2.0
aF-1.0
aF2.0
aF2.0
aF2.0
aF-1.0
aF2.0
aF2.0
aF-1.0
aF2.0
aF2.0
aF-1.0
aF-1.0
aF-1.0
aF-1.0
aF2.0
aF2.0
aF2.0
aF2.0
aF2.0
aF2.0
aF-1.0
aF2.0
aF-1.0
aF-1.0
aF-1.0
aF2.0
aF-1.0
aF2.0
aF2.0
aF2.0
aF-1.0
aF2.0
aF2.0
aF2.0
aF-1.0
aF-1.0
aF2.0
aF-1.0
aF-1.0
aF-1.0
aF2.0
aF2.0
aF2.0
aF2.0
aF2.0
aF-1.0
aF2.0
aF2.0
aF-1.0
aF-1.0
aF2.0
aF2.0
aF2.0
aF2.0
aF2.0
aF-1.0
aF2.0
aF-1.0
aF2.0
aF2.0
aF2.0
aF2.0
aF-1.0
aF2.0
aF-1.0
aF-1.0
aF2.0
aF2.0
aF-1.0
aF2.0
aF2.0
aF-1.0
aF2.0
aF2.0
aF2.0
aF-1.0
aF-1.0
aF2.0
aF2.0
aF-1.0
aF2.0
aF2.0
aF2.0
aF2.0
aF-1.0
aF2.0
aF2.0
aF-1.0
aF2.0
aF-1.0
aF-1.0
aF2.0
aF2.0
aF-1.0
aF2.0
aF2.0
aF-1.0
aF2.0
aF2.0
aF2.0
aF2.0
aF2.0
aF2.0
aF-1.0
aF2.0
aF-1.0
aF2.0
aF-1.0
aF2.0
aF-1.0
aF2.0
aF-1.0
aF2.0
aF2.0
aF2.0
aF-3.0
aF2.0
aF2.0
aF-1.0
aF-1.0
aF2.0
aF2.0
aF2.0
aF-1.0
aF2.0
aF2.0
aF-1.0
aF-1.0
aF2.0
aF2.0
aF-1.0
aF-1.0
aF-1.0
aF2.0
aF-1.0
aF-1.0
aF2.0
aF-1.0
aF2.0
aF2.0
aF2.0
aF-1.0
aF-1.0
aF2.0
aF2.0
aF2.0
aF2.0
aF2.0
aF2.0
aF2.0
aF2.0
aF2.0
aF-1.0
aF-1.0
aF2.0
aF2.0
aF2.0
aF-1.0
aF2.0
aF-1.0
aF2.0
aF2.0
aF2.0
aF2.0
aF2.0
aF-1.0
aF-1.0
aF2.0
aF-1.0
aF2.0
aF2.0
aF-1.0
aF2.0
aF2.0
aF2.0
aF-1.0
aF2.0
aF2.0
aF2.0
aF2.0
aF2.0
aF2.0
aF2.0
aF-1.0
aF2.0
aF-1.0
aF-1.0
aF2.0
aF2.0
aF2.0
aF2.0
aF2.0
aF2.0
aF2.0
aF2.0
aF-1.0
aF-1.0
aF2.0
aF2.0
aF-1.0
aF-1.0
aF2.0
aF2.0
aF2.0
aF2.0
aF-1.0
aF2.0
aF2.0
aF2.0
aF-1.0
aF-1.0
aF-1.0
aF-1.0
aF-1.0
aF-1.0
aF2.0
aF-1.0
aF-1.0
aF-1.0
aF-1.0
aF2.0
aF2.0
aF2.0
aF-1.0
aF2.0
aF2.0
aF2.0
aF2.0
aF-1.0
aF-1.0
aF2.0
aF2.0
aF-1.0
aF-1.0
aF2.0
aF-1.0
aF2.0
aF-1.0
aF2.0
aF2.0
aF-1.0
aF2.0
aF2.0
aF2.0
aF-1.0
aF2.0
aF2.0
aF2.0
aF2.0
aF-1.0
aF-1.0
aF2.0
aF-1.0
aF-1.0
aF2.0
aF2.0
aF2.0
aF-1.0
aF2.0
aF2.0
aF2.0
aF-1.0
aF-1.0
aF2.0
aF2.0
aF2.0
aF-1.0
aF-1.0
aF2.0
aF2.0
aF-1.0
aF2.0
aF2.0
aF2.0
aF2.0
aF2.0
aF-1.0
aF2.0
aF2.0
aF2.0
aF2.0
aF-1.0
aF-1.0
aF2.0
aF-1.0
aF-1.0
aF2.0
aF-1.0
aF-1.0
aF-1.0
aF2.0
aF-1.0
aF-1.0
aF2.0
aF2.0
aF2.0
aF-1.0
aF-1.0
aF2.0
aF-1.0
aF-1.0
aF2.0
aF-1.0
aF-1.0
aF2.0
aF-1.0
aF-1.0
aF-1.0
aF-1.0
aF2.0
aF2.0
aF2.0
aF2.0
aF-1.0
aF2.0
aF2.0
aF2.0
aF-1.0
aF-1.0
aF-1.0
aF2.0
aF-1.0
aF-1.0
aF2.0
aF2.0
aF-1.0
aF-1.0
aF-1.0
aF2.0
aF2.0
aF2.0
aF2.0
aF-1.0
aF-1.0
aF-1.0
aF2.0
aF-1.0
aF2.0
aF2.0
aF2.0
aF2.0
aF2.0
aF2.0
aF2.0
aF2.0
aF2.0
aF-1.0
aF-1.0
aF-1.0
aF2.0
aF-1.0
aF2.0
aF2.0
aF-1.0
aF-1.0
aF-1.0
aF2.0
aF2.0
aF2.0
aF-1.0
aF2.0
aF-1.0
aF2.0
aF-1.0
aF2.0
aF-1.0
aF2.0
aF2.0
aF2.0
aF2.0
aF-1.0
aF2.0
aF2.0
aF2.0
aF2.0
aF2.0
aF2.0
aF-1.0
aF2.0
aF-1.0
aF2.0
aF2.0
aF-1.0
aF2.0
aF-1.0
aF2.0
aF-1.0
aF-1.0
aF2.0
aF-1.0
aF2.0
aF2.0
aF2.0
aF2.0
aF2.0
aF-1.0
aF-1.0
aF-1.0
aF-1.0
aF-1.0
aF2.0
aF-1.0
aF-1.0
aF-1.0
aF-1.0
aF2.0
aF-1.0
aF2.0
aF2.0
aF2.0
aF2.0
aF-1.0
aF2.0
aF-1.0
aF2.0
aF2.0
aF-1.0
aF2.0
aF-1.0
aF2.0
aF2.0
aF2.0
aF2.0
aF-1.0
aF-1.0
aF2.0
aF-1.0
aF2.0
aF-1.0
aF2.0
aF-1.0
aF2.0
aF-1.0
aF2.0
aF2.0
aF2.0
aF2.0
aF2.0
aF-1.0
aF-1.0
aF2.0
aF2.0
aF2.0
aF-1.0
aF-1.0
aF-1.0
aF2.0
aF2.0
aF2.0
aF-1.0
aF-1.0
aF2.0
aF2.0
aF-1.0
aF-1.0
aF2.0
aF2.0
aF-1.0
aF2.0
aF-1.0
aF-1.0
aF2.0
aF-1.0
aF2.0
aF-1.0
aF-1.0
aF2.0
aF2.0
aF2.0
aF2.0
aF2.0
aF-1.0
aF2.0
aF2.0
aF2.0
aF2.0
aF-1.0
aF2.0
aF2.0
aF2.0
aF-1.0
aF2.0
aF-1.0
aF2.0
aF2.0
aF-1.0
aF2.0
aF-1.0
aF2.0
aF-1.0
aF-1.0
aF2.0
aF-1.0
aF2.0
aF2.0
aF2.0
aF2.0
aF2.0
aF-1.0
aF2.0
aF-1.0
aF2.0
aF-1.0
aF2.0
aF2.0
aF2.0
aF2.0
aF2.0
aF2.0
aF-1.0
aF2.0
aF-1.0
aF-1.0
aF-1.0
aF2.0
aF2.0
aF2.0
aF2.0
aF-1.0
aF2.0
aF2.0
aF-1.0
aF2.0
aF-1.0
aF2.0
aF2.0
aF-1.0
aF-1.0
aF2.0
aF-1.0
aF2.0
aF-1.0
aF2.0
aF2.0
aF2.0
aF2.0
aF2.0
aF2.0
aF2.0
aF2.0
aF2.0
aF-1.0
aF2.0
aF2.0
aF2.0
aF2.0
aF2.0
aF2.0
aF2.0
aF2.0
aF2.0
aF-1.0
aF2.0
aF-1.0
aF-1.0
aF2.0
aF2.0
aF-1.0
aF-1.0
aF-1.0
aF-1.0
aF-1.0
aF2.0
aF2.0
aF2.0
aF2.0
aF-1.0
aF-1.0
aF2.0
aF2.0
aF2.0
aF-1.0
aF2.0
aF2.0
aF-1.0
aF2.0
aF-1.0
aF-1.0
aF2.0
aF2.0
aF-1.0
aF2.0
aF2.0
aF-1.0
aF-1.0
aF2.0
aF-1.0
aF2.0
aF-1.0
aF2.0
aF-1.0
aF-1.0
aF2.0
aF2.0
aF-1.0
aF2.0
aF-1.0
aF-1.0
aF-1.0
aF-1.0
aF2.0
aF-1.0
aF2.0
aF2.0
aF-1.0
aF-1.0
aF-1.0
aF-1.0
aF2.0
aF-1.0
aF2.0
aF-1.0
aF-1.0
aF-1.0
aF2.0
aF2.0
aF-1.0
aF2.0
aF2.0
aF-1.0
aF2.0
aF2.0
aF2.0
aF2.0
aF2.0
aF-1.0
aF-1.0
aF2.0
aF2.0
aF-1.0
aF-1.0
aF-1.0
aF-1.0
aF-1.0
aF2.0
aF2.0
aF2.0
aF2.0
aF-1.0
aF2.0
aF2.0
aF2.0
aF2.0
aF-1.0
aF-1.0
aF2.0
aF2.0
aF-1.0
aF2.0
aF2.0
aF-1.0
aF2.0
aF-1.0
aF-1.0
aF-1.0
aF-1.0
aF2.0
aF2.0
aF2.0
aF-1.0
aF-1.0
aF2.0
aF2.0
aF2.0
aF2.0
aF-1.0
aF-1.0
aF2.0
aF-1.0
aF-1.0
aF-1.0
aF-1.0
aF-1.0
aF2.0
aF2.0
aF2.0
aF2.0
aF2.0
aF2.0
aF-1.0
aF2.0
aF-1.0
aF2.0
aF-1.0
aF2.0
aF2.0
aF-1.0
aF-1.0
aF2.0
aF2.0
aF2.0
aF2.0
aF-1.0
aF2.0
aF-1.0
aF2.0
aF2.0
aF-1.0
aF2.0
aF2.0
aF-1.0
aF2.0
aF-1.0
aF2.0
aF2.0
aF-1.0
aF2.0
aF2.0
aF2.0
aF2.0
aF2.0
aF2.0
aF2.0
aF2.0
aF-1.0
aF-1.0
aF2.0
aF2.0
aF2.0
aF-1.0
aF2.0
aF2.0
aF2.0
aF2.0
aF-1.0
aF-1.0
aF-1.0
aF-1.0
aF2.0
aF2.0
aF-1.0
aF2.0
aF-1.0
aF-1.0
aF2.0
aF2.0
aF2.0
aF-1.0
aF2.0
aF2.0
aF2.0
aF-1.0
aF-1.0
aF2.0
aF2.0
aF2.0
aF2.0
aF-1.0
aF-1.0
aF-1.0
aF2.0
aF-1.0
aF-1.0
aF2.0
aF-1.0
aF-1.0
aF-1.0
aF-1.0
aF-1.0
aF-1.0
aF-1.0
aF2.0
aF2.0
aF2.0
aF-1.0
aF2.0
aF-1.0
aF2.0
aF-1.0
aF2.0
aF-1.0
aF2.0
aF2.0
aF2.0
aF2.0
aF2.0
aF2.0
aF-1.0
aF-1.0
aF-1.0
aF2.0
aF2.0
aF-1.0
aF-1.0
aF2.0
aF2.0
aF2.0
aF-1.0
aF-1.0
aF2.0
aF-1.0
aF2.0
aF-1.0
aF-1.0
aF2.0
aF2.0
aF2.0
aF-1.0
aF-1.0
aF2.0
aF-1.0
aF2.0
aF2.0
aF2.0
aF-1.0
aF-1.0
aF2.0
aF-1.0
aF2.0
aF2.0
aF2.0
aF-1.0
aF-1.0
aF2.0
aF2.0
aF-1.0
aF-1.0
aF-1.0
aF-1.0
aF-1.0
aF2.0
aF2.0
aF-1.0
aF2.0
aF-1.0
aF2.0
aF-1.0
aF2.0
aF-1.0
aF2.0
aF2.0
aF2.0
aF-1.0
aF-1.0
aF-1.0
aF2.0
aF2.0
aF-1.0
aF2.0
aF2.0
aF2.0
aF-1.0
aF2.0
aF-1.0
aF2.0
aF-1.0
aF2.0
aF2.0
aF-1.0
aF-1.0
aF2.0
aF-1.0
aF2.0
aF-1.0
aF-1.0
aF2.0
aF2.0
aF2.0
aF2.0
aF2.0
aF-1.0
aF-1.0
aF2.0
aF2.0
aF2.0
aF2.0
aF2.0
aF2.0
aF2.0
aF-1.0
aF2.0
aF2.0
aF2.0
aF2.0
aF-1.0
aF2.0
aF2.0
aF-1.0
aF2.0
aF2.0
aF-1.0
aF-1.0
aF-1.0
aF2.0
aF2.0
aF2.0
aF-1.0
aF-1.0
aF2.0
aF-1.0
aF2.0
aF2.0
aF2.0
aF2.0
aF2.0
aF2.0
aF2.0
aF2.0
aF-1.0
aF-1.0
aF2.0
aF2.0
aF2.0
aF2.0
aF-1.0
aF2.0
aF-1.0
aF2.0
aF-1.0
aF2.0
aF2.0
aF2.0
aF2.0
aF-1.0
aF-1.0
aF-1.0
aF-1.0
aF2.0
aF2.0
aF2.0
aF2.0
aF2.0
aF2.0
aF2.0
aF2.0
aF-1.0
aF2.0
aF-1.0
aF-1.0
aF-1.0
aF2.0
aF-1.0
aF2.0
aF-1.0
aF2.0
aF-1.0
aF2.0
aF2.0
aF2.0
aF-1.0
aF2.0
aF2.0
aF-1.0
aF-1.0
aF2.0
aF2.0
aF2.0
aF2.0
aF2.0
aF-1.0
aF-1.0
aF-1.0
aF-1.0
aF2.0
aF2.0
aF-1.0
aF2.0
aF2.0
aF2.0
aF2.0
aF2.0
aF-1.0
aF2.0
aF2.0
aF2.0
aF2.0
aF-1.0
aF-1.0
aF-1.0
aF2.0
aF-1.0
aF-1.0
aF2.0
aF-1.0
aF-1.0
aF2.0
aF-1.0
aF2.0
aF-1.0
aF2.0
aF2.0
aF2.0
aF-1.0
aF2.0
aF2.0
aF-1.0
aF2.0
aF2.0
aF-1.0
aF2.0
aF2.0
aF2.0
aF2.0
aF2.0
aF2.0
aF-1.0
aF-1.0
aF2.0
aF-1.0
aF2.0
aF2.0
aF-1.0
aF2.0
aF2.0
aF-1.0
aF-1.0
aF2.0
aF2.0
aF2.0
aF2.0
aF2.0
aF2.0
aF-1.0
aF2.0
aF-1.0
aF2.0
aF2.0
aF2.0
aF2.0
aF-1.0
aF2.0
aF2.0
aF2.0
aF2.0
aF2.0
aF2.0
aF2.0
aF-1.0
aF2.0
aF-1.0
aF2.0
aF2.0
aF2.0
aF2.0
aF2.0
aF2.0
aF2.0
aF2.0
aF2.0
aF2.0
aF2.0
aF-1.0
aF2.0
aF2.0
aF2.0
aF2.0
aF2.0
aF2.0
aF-1.0
aF2.0
aF-1.0
aF-1.0
aF-1.0
aF-1.0
aF-1.0
aF2.0
aF-1.0
aF2.0
aF-1.0
aF2.0
aF-1.0
aF2.0
aF2.0
aF2.0
aF-1.0
aF2.0
aF2.0
aF2.0
aF-1.0
aF2.0
aF-1.0
aF-1.0
aF-1.0
aF-1.0
aF2.0
aF2.0
aF-1.0
aF-1.0
aF2.0
aF-1.0
aF-1.0
aF2.0
aF-1.0
aF2.0
aF-1.0
aF2.0
aF2.0
aF2.0
aF2.0
aF2.0
aF2.0
aF2.0
aF-1.0
aF2.0
aF2.0
aF-1.0
aF-1.0
aF2.0
aF-1.0
aF2.0
aF-1.0
aF2.0
aF2.0
aF-1.0
aF2.0
aF2.0
aF-1.0
aF-1.0
aF2.0
aF2.0
aF-1.0
aF-1.0
aF2.0
aF2.0
aF-1.0
aF-1.0
aF2.0
aF-1.0
aF-1.0
aF2.0
aF2.0
aF2.0
aF2.0
aF-1.0
aF2.0
aF2.0
aF2.0
aF2.0
aF-1.0
aF2.0
aF2.0
aF2.0
aF-1.0
aF2.0
aF2.0
aF2.0
aF-1.0
aF-1.0
aF2.0
aF2.0
aF2.0
aF-1.0
aF2.0
aF2.0
aF2.0
aF2.0
aF2.0
aF-1.0
aF-1.0
aF-3.0
aF2.0
aF2.0
aF-1.0
aF2.0
aF2.0
aF-1.0
aF-1.0
aF-1.0
aF2.0
aF2.0
aF2.0
aF-1.0
aF2.0
aF-1.0
aF-1.0
aF-1.0
aF2.0
aF2.0
aF2.0
aF2.0
aF-1.0
aF2.0
aF2.0
aF-1.0
aF-1.0
aF2.0
aF2.0
aF-1.0
aF2.0
aF2.0
aF2.0
aF-1.0
aF-1.0
aF2.0
aF-1.0
aF2.0
aF2.0
aF2.0
aF-1.0
aF-1.0
aF2.0
aF-1.0
aF2.0
aF2.0
aF2.0
aF-1.0
aF2.0
aF2.0
aF-1.0
aF2.0
aF2.0
aF2.0
aF2.0
aF2.0
aF2.0
aF2.0
aF2.0
aF-1.0
aF2.0
aF2.0
aF2.0
aF-1.0
aF-1.0
aF2.0
aF2.0
aF2.0
aF2.0
aF2.0
aF2.0
aF2.0
aF2.0
aF2.0
aF-1.0
aF2.0
aF2.0
aF-1.0
aF2.0
aF-1.0
aF2.0
aF-1.0
aF-1.0
aF2.0
aF2.0
aF2.0
aF-1.0
aF-1.0
aF2.0
aF-1.0
aF2.0
aF2.0
aF2.0
aF2.0
aF2.0
aF-1.0
aF2.0
aF2.0
aF2.0
aF2.0
aF-1.0
aF2.0
aF2.0
aF-1.0
aF2.0
aF2.0
aF-1.0
aF-1.0
aF2.0
aF2.0
aF2.0
aF2.0
aF-1.0
aF2.0
aF-1.0
aF2.0
aF-1.0
aF2.0
aF-1.0
aF2.0
aF2.0
aF2.0
aF2.0
aF-1.0
aF2.0
aF-1.0
aF-1.0
aF-1.0
aF2.0
aF-1.0
aF2.0
aF-1.0
aF-1.0
aF2.0
aF2.0
aF2.0
aF2.0
aF2.0
aF2.0
aF-1.0
aF2.0
aF-1.0
aF2.0
aF-1.0
aF2.0
aF-1.0
aF2.0
aF-1.0
aF2.0
aF2.0
aF2.0
aF2.0
aF-1.0
aF2.0
aF2.0
aF2.0
aF2.0
aF2.0
aF-1.0
aF2.0
aF2.0
aF2.0
aF2.0
aF2.0
aF2.0
aF2.0
aF2.0
aF2.0
aF2.0
aF-1.0
aF2.0
aF2.0
aF2.0
aF2.0
aF2.0
aF-1.0
aF-1.0
aF-1.0
aF-1.0
aF2.0
aF2.0
aF2.0
aF-1.0
aF2.0
aF2.0
aF2.0
aF-1.0
aF2.0
aF2.0
aF2.0
aF2.0
aF2.0
aF2.0
aF2.0
aF2.0
aF2.0
aF2.0
aF2.0
aF-1.0
aF-1.0
aF2.0
aF2.0
aF2.0
aF-1.0
aF-1.0
aF-1.0
aF2.0
aF-1.0
aF2.0
aF-1.0
aF2.0
aF2.0
aF-1.0
aF2.0
aF-1.0
aF2.0
aF2.0
aF2.0
aF-1.0
aF2.0
aF2.0
aF2.0
aF-1.0
aF2.0
aF-1.0
aF-1.0
aF2.0
aF2.0
aF2.0
aF2.0
aF2.0
aF-1.0
aF2.0
aF2.0
aF2.0
aF-1.0
aF2.0
aF-1.0
aF2.0
aF2.0
aF-1.0
aF2.0
aF-1.0
aF2.0
aF2.0
aF2.0
aF2.0
aF2.0
aF2.0
aF2.0
aF-1.0
aF-1.0
aF-1.0
aF-1.0
aF2.0
aF2.0
aF2.0
aF2.0
aF2.0
aF2.0
aF-1.0
aF-1.0
aF2.0
aF2.0
aF2.0
aF2.0
aF-1.0
aF2.0
aF2.0
aF-1.0
aF2.0
aF2.0
aF-1.0
aF2.0
aF-1.0
aF-1.0
aF2.0
aF-1.0
aF-1.0
aF2.0
aF2.0
aF2.0
aF2.0
aF2.0
aF2.0
aF-1.0
aF2.0
aF-1.0
aF2.0
aF2.0
aF-1.0
aF2.0
aF2.0
aF-1.0
aF2.0
aF-1.0
aF2.0
aF2.0
aF2.0
aF-1.0
aF2.0
aF-1.0
aF2.0
aF2.0
aF-1.0
aF-1.0
aF2.0
aF2.0
aF2.0
aF2.0
aF-1.0
aF2.0
aF-1.0
aF2.0
aF2.0
aF2.0
aF2.0
aF2.0
aF-1.0
aF-1.0
aF2.0
aF-1.0
aF2.0
aF-1.0
aF-1.0
aF-1.0
aF-1.0
aF2.0
aF-1.0
aF-1.0
aF2.0
aF2.0
aF-1.0
aF2.0
aF-1.0
aF-1.0
aF-1.0
aF2.0
aF2.0
aF2.0
aF-1.0
aF2.0
aF-1.0
aF2.0
aF-1.0
aF-1.0
aF2.0
aF-1.0
aF2.0
aF2.0
aF-1.0
aF-1.0
aF2.0
aF2.0
aF2.0
aF2.0
aF2.0
aF-1.0
aF-1.0
aF-1.0
aF2.0
aF-1.0
aF-1.0
aF-1.0
aF2.0
aF-1.0
aF2.0
aF-1.0
aF2.0
aF2.0
aF2.0
aF2.0
aF2.0
aF2.0
aF2.0
aF2.0
aF2.0
aF-1.0
aF2.0
aF2.0
aF2.0
aF2.0
aF-1.0
aF2.0
aF2.0
aF2.0
aF2.0
aF2.0
aF2.0
aF2.0
aF2.0
aF2.0
aF-1.0
aF2.0
aF2.0
aF2.0
aF2.0
aF2.0
aF-1.0
aF-1.0
aF2.0
aF2.0
aF-1.0
aF2.0
aF2.0
aF-1.0
aF-1.0
aF2.0
aF2.0
aF2.0
aF2.0
aF2.0
aF2.0
aF2.0
aF-1.0
aF2.0
aF2.0
aF2.0
aF2.0
aF2.0
aF2.0
aF2.0
aF-1.0
aF2.0
aF2.0
aF2.0
aF2.0
aF2.0
aF-1.0
aF2.0
aF-1.0
aF2.0
aF2.0
aF-1.0
aF-1.0
aF2.0
aF2.0
aF-1.0
aF2.0
aF-1.0
aF-1.0
aF2.0
aF-1.0
aF-1.0
aF2.0
aF-1.0
aF-1.0
aF2.0
aF-1.0
aF2.0
aF2.0
aF2.0
aF2.0
aF-1.0
aF-1.0
aF-1.0
aF2.0
aF2.0
aF2.0
aF-1.0
aF2.0
aF2.0
aF-1.0
aF-1.0
aF-1.0
aF2.0
aF-1.0
aF2.0
aF-1.0
aF2.0
aF2.0
aF2.0
aF-1.0
aF-1.0
aF2.0
aF2.0
aF2.0
aF-1.0
aF-1.0
aF-1.0
aF-1.0
aF-1.0
aF2.0
aF-1.0
aF2.0
aF2.0
aF2.0
aF2.0
aF2.0
aF2.0
aF2.0
aF2.0
aF-1.0
aF2.0
aF2.0
aF2.0
aF2.0
aF2.0
aF2.0
aF2.0
aF2.0
aF2.0
aF-1.0
aF-1.0
aF-1.0
aF-1.0
aF2.0
aF2.0
aF2.0
aF2.0
aF-1.0
aF2.0
aF-1.0
aF-1.0
aF2.0
aF2.0
aF-1.0
aF2.0
aF-1.0
aF2.0
aF2.0
aF2.0
aF2.0
aF2.0
aF2.0
aF2.0
aF-1.0
aF-1.0
aF2.0
aF-1.0
aF2.0
aF-1.0
aF-1.0
aF-1.0
aF-1.0
aF2.0
aF2.0
aF-1.0
aF-1.0
aF2.0
aF-1.0
aF2.0
aF2.0
aF2.0
aF2.0
aF-1.0
aF2.0
aF-1.0
aF2.0
aF-1.0
aF2.0
aF-1.0
aF-1.0
aF2.0
aF2.0
aF2.0
aF2.0
aF2.0
aF2.0
aF2.0
aF-1.0
aF2.0
aF-1.0
aF-1.0
aF-1.0
aF-1.0
aF-1.0
aF-1.0
aF2.0
aF2.0
aF2.0
aF-1.0
aF2.0
aF2.0
aF-1.0
aF-1.0
aF-1.0
aF-1.0
aF2.0
aF2.0
aF-1.0
aF2.0
aF2.0
aF2.0
aF2.0
aF-1.0
aF2.0
aF-1.0
aF2.0
aF2.0
aF2.0
aF2.0
aF2.0
aF-1.0
aF2.0
aF2.0
aF2.0
aF2.0
aF2.0
aF2.0
aF-1.0
aF2.0
aF2.0
aF2.0
aF2.0
aF2.0
aF2.0
aF-1.0
aF2.0
aF2.0
aF-1.0
aF2.0
aF-1.0
aF2.0
aF-1.0
aF-1.0
aF2.0
aF2.0
aF-1.0
aF2.0
aF2.0
aF2.0
aF2.0
aF2.0
aF2.0
aF-1.0
aF2.0
aF2.0
aF2.0
aF2.0
aF-1.0
aF2.0
aF2.0
aF2.0
aF2.0
aF2.0
aF2.0
aF-1.0
aF-1.0
aF-1.0
aF-1.0
aF2.0
aF2.0
aF2.0
aF2.0
aF2.0
aF-1.0
aF-1.0
aF2.0
aF-1.0
aF2.0
aF2.0
aF2.0
aF2.0
aF-1.0
aF-1.0
aF2.0
aF2.0
aF-1.0
aF2.0
aF2.0
aF2.0
aF2.0
aF-1.0
aF2.0
aF2.0
aF2.0
aF2.0
aF2.0
aF2.0
aF2.0
aF-1.0
aF2.0
aF-1.0
aF2.0
aF2.0
aF2.0
aF2.0
aF2.0
aF-1.0
aF-1.0
aF2.0
aF2.0
aF-1.0
aF2.0
aF2.0
aF-3.0
aF-1.0
aF2.0
aF-1.0
aF2.0
aF2.0
aF2.0
aF2.0
aF2.0
aF2.0
aF2.0
aF-1.0
aF2.0
aF2.0
aF2.0
aF2.0
aF-1.0
aF2.0
aF2.0
aF-1.0
aF-1.0
aF2.0
aF2.0
aF-1.0
aF-1.0
aF-1.0
aF-1.0
aF-1.0
aF-1.0
aF2.0
aF-1.0
aF2.0
aF-1.0
aF-1.0
aF2.0
aF-1.0
aF-1.0
aF2.0
aF2.0
aF2.0
aF-1.0
aF-1.0
aF2.0
aF2.0
aF2.0
aF2.0
aF-1.0
aF2.0
aF2.0
aF2.0
aF2.0
aF2.0
aF2.0
aF2.0
aF2.0
aF-1.0
aF-1.0
aF-1.0
aF-1.0
aF2.0
aF2.0
aF2.0
aF-1.0
aF2.0
aF2.0
aF2.0
aF-1.0
aF2.0
aF-1.0
aF-1.0
aF2.0
aF2.0
aF-1.0
aF2.0
aF-1.0
aF2.0
aF-1.0
aF-1.0
aF-1.0
aF2.0
aF2.0
aF-1.0
aF-1.0
aF-1.0
aF-1.0
aF-1.0
aF2.0
aF-1.0
aF-1.0
aF-1.0
aF2.0
aF2.0
aF2.0
aF-1.0
aF2.0
aF2.0
aF-1.0
aF2.0
aF-1.0
aF2.0
aF2.0
aF-1.0
aF2.0
aF2.0
aF2.0
aF2.0
aF-1.0
aF2.0
aF-1.0
aF2.0
aF2.0
aF-1.0
aF-1.0
aF2.0
aF2.0
aF2.0
aF-1.0
aF2.0
aF-1.0
aF2.0
aF-1.0
aF2.0
aF-1.0
aF2.0
aF-1.0
aF2.0
aF-1.0
aF2.0
aF2.0
aF2.0
aF-1.0
aF2.0
aF2.0
aF-1.0
aF2.0
aF2.0
aF2.0
aF2.0
aF-1.0
aF-1.0
aF2.0
aF-1.0
aF2.0
aF2.0
aF2.0
aF2.0
aF2.0
aF-1.0
aF-1.0
aF2.0
aF2.0
aF2.0
aF-1.0
aF2.0
aF2.0
aF2.0
aF-1.0
aF-1.0
aF2.0
aF2.0
aF2.0
aF-1.0
aF2.0
aF2.0
aF2.0
aF-1.0
aF-1.0
aF-1.0
aF2.0
aF2.0
aF2.0
aF-1.0
aF-1.0
aF-1.0
aF2.0
aF2.0
aF-1.0
aF2.0
aF2.0
aF2.0
aF2.0
aF-1.0
aF-1.0
aF2.0
aF-1.0
aF2.0
aF2.0
aF2.0
aF-1.0
aF2.0
aF2.0
aF2.0
aF2.0
aF-1.0
aF-1.0
aF2.0
aF-1.0
aF-1.0
aF2.0
aF2.0
aF-1.0
aF2.0
aF2.0
aF-1.0
aF2.0
aF2.0
aF2.0
aF-1.0
aF2.0
aF2.0
aF2.0
aF-1.0
aF2.0
aF-1.0
aF-1.0
aF-1.0
aF2.0
aF2.0
aF2.0
aF2.0
aF2.0
aF2.0
aF2.0
aF-1.0
aF-1.0
aF-1.0
aF-1.0
aF-1.0
aF2.0
aF2.0
aF2.0
aF-1.0
aF2.0
aF2.0
aF2.0
aF-1.0
aF-1.0
aF2.0
aF2.0
aF2.0
aF2.0
aF2.0
aF-1.0
aF-1.0
aF2.0
aF2.0
aF2.0
aF2.0
aF2.0
aF-1.0
aF2.0
aF-1.0
aF2.0
aF-1.0
aF2.0
aF-1.0
aF-1.0
aF2.0
aF-1.0
aF-1.0
aF2.0
aF-1.0
aF-1.0
aF2.0
aF-1.0
aF2.0
aF2.0
aF-1.0
aF2.0
aF2.0
aF2.0
aF-1.0
aF-1.0
aF2.0
aF2.0
aF2.0
aF-1.0
aF2.0
aF-1.0
aF-1.0
aF-1.0
aF2.0
aF2.0
aF-1.0
aF2.0
aF-1.0
aF2.0
aF2.0
aF2.0
aF2.0
aF-3.0
aF2.0
aF2.0
aF2.0
aF-1.0
aF2.0
aF2.0
aF2.0
aF-1.0
aF2.0
aF-1.0
aF2.0
aF-1.0
aF2.0
aF-1.0
aF2.0
aF2.0
aF2.0
aF-1.0
aF2.0
aF-1.0
aF-1.0
aF2.0
aF2.0
aF-1.0
aF-1.0
aF2.0
aF-1.0
aF2.0
aF2.0
aF2.0
aF-1.0
aF2.0
aF-1.0
aF2.0
aF-1.0
aF-1.0
aF2.0
aF2.0
aF-1.0
aF2.0
aF-1.0
aF-1.0
aF2.0
aF2.0
aF2.0
aF2.0
aF2.0
aF2.0
aF2.0
aF-1.0
aF-1.0
aF-1.0
aF-1.0
aF-1.0
aF2.0
aF2.0
aF2.0
aF2.0
aF-1.0
aF-1.0
aF2.0
aF2.0
aF2.0
aF2.0
aF-1.0
aF-1.0
aF2.0
aF2.0
aF2.0
aF2.0
aF-1.0
aF2.0
aF-1.0
aF-1.0
aF2.0
aF-1.0
aF2.0
aF-1.0
aF-1.0
aF-1.0
aF-1.0
aF2.0
aF2.0
aF2.0
aF-1.0
aF2.0
aF-1.0
aF2.0
aF2.0
aF2.0
aF2.0
aF-1.0
aF-1.0
aF-1.0
aF2.0
aF-1.0
aF2.0
aF-1.0
aF2.0
aF-1.0
aF-1.0
aF2.0
aF-1.0
aF2.0
aF-1.0
aF2.0
aF2.0
aF-1.0
aF-1.0
aF2.0
aF2.0
aF2.0
aF-1.0
aF-1.0
aF-1.0
aF-1.0
aF2.0
aF2.0
aF2.0
aF-1.0
aF-1.0
aF2.0
aF2.0
aF2.0
aF-1.0
aF2.0
aF2.0
aF2.0
aF2.0
aF-1.0
aF-1.0
aF2.0
aF2.0
aF2.0
aF2.0
aF2.0
aF-1.0
aF2.0
aF-1.0
aF2.0
aF2.0
aF2.0
aF2.0
aF-1.0
aF2.0
aF2.0
aF-1.0
aF2.0
aF2.0
aF2.0
aF2.0
aF2.0
aF2.0
aF2.0
aF-1.0
aF2.0
aF2.0
aF2.0
aF2.0
aF-1.0
aF-1.0
aF-1.0
aF2.0
aF2.0
aF2.0
aF2.0
aF2.0
aF2.0
aF-1.0
aF2.0
aF-1.0
aF-1.0
aF-1.0
aF-1.0
aF2.0
aF-1.0
aF2.0
aF2.0
aF-1.0
aF-1.0
aF2.0
aF2.0
aF2.0
aF2.0
aF2.0
aF2.0
aF-1.0
aF-1.0
aF2.0
aF2.0
aF-1.0
aF2.0
aF2.0
aF2.0
aF2.0
aF-1.0
aF2.0
aF2.0
aF2.0
aF2.0
aF2.0
aF2.0
aF-1.0
aF-1.0
aF2.0
aF-3.0
aF-1.0
aF2.0
aF2.0
aF-1.0
aF2.0
aF-1.0
aF-1.0
aF2.0
aF-1.0
aF2.0
aF2.0
aF2.0
aF-1.0
aF2.0
aF-1.0
aF2.0
aF2.0
aF2.0
aF2.0
aF-1.0
aF-1.0
aF2.0
aF2.0
aF-1.0
aF2.0
aF-1.0
aF2.0
aF2.0
aF-1.0
aF2.0
aF2.0
aF2.0
aF2.0
aF-1.0
aF2.0
aF2.0
aF-1.0
aF-1.0
aF-1.0
aF2.0
aF2.0
aF2.0
aF2.0
aF2.0
aF2.0
aF-1.0
aF2.0
aF2.0
aF-1.0
aF-1.0
aF-1.0
aF2.0
aF2.0
aF-1.0
aF2.0
aF2.0
aF-1.0
aF2.0
aF2.0
aF-1.0
aF-1.0
aF2.0
aF2.0
aF-1.0
aF2.0
aF2.0
aF-1.0
aF2.0
aF2.0
aF2.0
aF-1.0
aF2.0
aF2.0
aF-1.0
aF2.0
aF-1.0
aF2.0
aF-1.0
aF-1.0
aF2.0
aF-1.0
aF-1.0
aF-1.0
aF2.0
aF2.0
aF2.0
aF-1.0
aF-1.0
aF-1.0
aF2.0
aF2.0
aF-1.0
aF-1.0
aF-1.0
aF2.0
aF2.0
aF2.0
aF2.0
aF-1.0
aF2.0
aF2.0
aF-1.0
aF2.0
aF2.0
aF-1.0
aF2.0
aF2.0
aF2.0
aF2.0
aF2.0
aF-1.0
aF2.0
aF-1.0
aF-1.0
aF-1.0
aF2.0
aF2.0
aF2.0
aF-1.0
aF-1.0
aF-1.0
aF-1.0
aF2.0
aF2.0
aF2.0
aF2.0
aF-1.0
aF2.0
aF-1.0
aF-1.0
aF-1.0
aF2.0
aF2.0
aF-1.0
aF-1.0
aF2.0
aF2.0
aF-1.0
aF-1.0
aF2.0
aF-1.0
aF2.0
aF2.0
aF2.0
aF-1.0
aF2.0
aF2.0
aF2.0
aF2.0
aF2.0
aF-1.0
aF2.0
aF-1.0
aF2.0
aF2.0
aF2.0
aF2.0
aF2.0
aF-1.0
aF2.0
aF2.0
aF-1.0
aF2.0
aF2.0
aF-1.0
aF-1.0
aF-1.0
aF2.0
aF2.0
aF2.0
aF2.0
aF2.0
aF2.0
aF2.0
aF2.0
aF2.0
aF-1.0
aF-1.0
aF-1.0
aF2.0
aF-1.0
aF2.0
aF-1.0
aF2.0
aF2.0
aF2.0
aF2.0
aF-1.0
aF2.0
aF-1.0
aF-1.0
aF2.0
aF2.0
aF2.0
aF-1.0
aF2.0
aF2.0
aF2.0
aF2.0
aF2.0
aF2.0
aF2.0
aF2.0
aF2.0
aF2.0
aF-1.0
aF2.0
aF-1.0
aF-3.0
aF2.0
aF2.0
aF-1.0
aF-1.0
aF-1.0
aF2.0
aF-1.0
aF-1.0
aF-1.0
aF2.0
aF-1.0
aF2.0
aF-1.0
aF-1.0
aF2.0
aF2.0
aF-1.0
aF-1.0
aF2.0
aF2.0
aF-1.0
aF-1.0
aF2.0
aF2.0
aF2.0
aF-1.0
aF2.0
aF-1.0
aF2.0
aF2.0
aF2.0
aF2.0
aF2.0
aF2.0
aF2.0
aF-1.0
aF2.0
aF-1.0
aF-1.0
aF2.0
aF2.0
aF2.0
aF-1.0
aF-1.0
aF2.0
aF2.0
aF2.0
aF-1.0
aF2.0
aF-1.0
aF-1.0
aF2.0
aF2.0
aF-1.0
aF-1.0
aF2.0
aF-1.0
aF-1.0
aF-1.0
aF2.0
aF2.0
aF-1.0
aF2.0
aF2.0
aF2.0
aF2.0
aF2.0
aF2.0
aF2.0
aF-1.0
aF-1.0
aF-1.0
aF-1.0
aF-1.0
aF-1.0
aF-1.0
aF-1.0
aF2.0
aF2.0
aF2.0
aF2.0
aF2.0
aF2.0
aF2.0
aF-1.0
aF2.0
aF2.0
aF-1.0
aF-1.0
aF2.0
aF-1.0
aF2.0
aF2.0
aF-1.0
aF-1.0
aaI5000
a.