(lp0
(lp1
F-1.0
aF0.5
aF1.0
aF0.0
aF-0.2
aF-0.3333333333333333
aF-0.42857142857142855
aF-0.125
aF-0.2222222222222222
aF-0.3
aF-0.09090909090909091
aF-0.16666666666666666
aF-0.23076923076923078
aF-0.2857142857142857
aF-0.13333333333333333
aF-0.1875
aF-0.23529411764705882
aF-0.2777777777777778
aF-0.3157894736842105
aF-0.35
aF-0.38095238095238093
aF-0.2727272727272727
aF-0.17391304347826086
aF-0.08333333333333333
aF-0.12
aF-0.038461538461538464
aF-0.07407407407407407
aF-0.10714285714285714
aF-0.13793103448275862
aF-0.16666666666666666
aF-0.0967741935483871
aF-0.03125
aF-0.06060606060606061
aF-0.08823529411764706
aF-0.11428571428571428
aF-0.1388888888888889
aF-0.16216216216216217
aF-0.18421052631578946
aF-0.20512820512820512
aF-0.225
aF-0.24390243902439024
aF-0.2619047619047619
aF-0.27906976744186046
aF-0.29545454545454547
aF-0.3111111111111111
aF-0.3695652173913043
aF-0.3191489361702128
aF-0.3333333333333333
aF-0.3469387755102041
aF-0.3
aF-0.3137254901960784
aF-0.3269230769230769
aF-0.2830188679245283
aF-0.24074074074074073
aF-0.2
aF-0.16071428571428573
aF-0.17543859649122806
aF-0.1896551724137931
aF-0.15254237288135594
aF-0.11666666666666667
aF-0.13114754098360656
aF-0.14516129032258066
aF-0.19047619047619047
aF-0.203125
aF-0.2153846153846154
aF-0.18181818181818182
aF-0.19402985074626866
aF-0.20588235294117646
aF-0.21739130434782608
aF-0.18571428571428572
aF-0.19718309859154928
aF-0.16666666666666666
aF-0.136986301369863
aF-0.14864864864864866
aF-0.16
aF-0.13157894736842105
aF-0.14285714285714285
aF-0.15384615384615385
aF-0.16455696202531644
aF-0.175
aF-0.14814814814814814
aF-0.18292682926829268
aF-0.1927710843373494
aF-0.16666666666666666
aF-0.17647058823529413
aF-0.18604651162790697
aF-0.16091954022988506
aF-0.13636363636363635
aF-0.14606741573033707
aF-0.15555555555555556
aF-0.18681318681318682
aF-0.1956521739130435
aF-0.20430107526881722
aF-0.2127659574468085
aF-0.22105263157894736
aF-0.22916666666666666
aF-0.20618556701030927
aF-0.21428571428571427
aF-0.2222222222222222
aF-0.23
aF-0.2079207920792079
aF-0.21568627450980393
aF-0.22330097087378642
aF-0.20192307692307693
aF-0.18095238095238095
aF-0.16037735849056603
aF-0.16822429906542055
aF-0.17592592592592593
aF-0.1834862385321101
aF-0.19090909090909092
aF-0.17117117117117117
aF-0.17857142857142858
aF-0.1592920353982301
aF-0.16666666666666666
aF-0.14782608695652175
aF-0.12931034482758622
aF-0.1111111111111111
aF-0.11864406779661017
aF-0.12605042016806722
aF-0.10833333333333334
aF-0.11570247933884298
aF-0.12295081967213115
aF-0.13008130081300814
aF-0.11290322580645161
aF-0.096
aF-0.10317460317460317
aF-0.11023622047244094
aF-0.09375
aF-0.10077519379844961
aF-0.1076923076923077
aF-0.11450381679389313
aF-0.09848484848484848
aF-0.10526315789473684
aF-0.11194029850746269
aF-0.0962962962962963
aF-0.10294117647058823
aF-0.10948905109489052
aF-0.09420289855072464
aF-0.10071942446043165
aF-0.10714285714285714
aF-0.09219858156028368
aF-0.07746478873239436
aF-0.06293706293706294
aF-0.06944444444444445
aF-0.07586206896551724
aF-0.0821917808219178
aF-0.08843537414965986
aF-0.07432432432432433
aF-0.08053691275167785
aF-0.1
aF-0.10596026490066225
aF-0.1118421052631579
aF-0.11764705882352941
aF-0.12337662337662338
aF-0.10967741935483871
aF-0.11538461538461539
aF-0.10191082802547771
aF-0.08860759493670886
aF-0.09433962264150944
aF-0.1
aF-0.08695652173913043
aF-0.07407407407407407
aF-0.07975460122699386
aF-0.0975609756097561
aF-0.10303030303030303
aF-0.09036144578313253
aF-0.07784431137724551
aF-0.08333333333333333
aF-0.08875739644970414
aF-0.07647058823529412
aF-0.08187134502923976
aF-0.06976744186046512
aF-0.07514450867052024
aF-0.06321839080459771
aF-0.06857142857142857
aF-0.07386363636363637
aF-0.062146892655367235
aF-0.05056179775280899
aF-0.03910614525139665
aF-0.044444444444444446
aF-0.03314917127071823
aF-0.02197802197802198
aF-0.01092896174863388
aF-0.016304347826086956
aF-0.021621621621621623
aF-0.010752688172043012
aF0.0
aF0.010638297872340425
aF0.005291005291005291
aF0.0
aF0.010471204188481676
aF0.005208333333333333
aF0.015544041450777202
aF0.02577319587628866
aF0.035897435897435895
aF0.030612244897959183
aF0.04060913705583756
aF0.050505050505050504
aF0.06030150753768844
aF0.055
aF0.04975124378109453
aF0.0594059405940594
aF0.054187192118226604
aF0.049019607843137254
aF0.05853658536585366
aF0.05339805825242718
aF0.04830917874396135
aF0.04326923076923077
aF0.05263157894736842
aF0.06190476190476191
aF0.07109004739336493
aF0.0660377358490566
aF0.06103286384976526
aF0.07009345794392523
aF0.06511627906976744
aF0.06018518518518518
aF0.055299539170506916
aF0.05045871559633028
aF0.0593607305936073
aF0.05454545454545454
aF0.049773755656108594
aF0.04504504504504504
aF0.053811659192825115
aF0.04017857142857143
aF0.035555555555555556
aF0.030973451327433628
aF0.02643171806167401
aF0.013157894736842105
aF0.021834061135371178
aF0.030434782608695653
aF0.025974025974025976
aF0.021551724137931036
aF0.008583690987124463
aF0.004273504273504274
aF0.01276595744680851
aF0.00847457627118644
aF0.016877637130801686
aF0.025210084033613446
aF0.02092050209205021
aF0.029166666666666667
aF0.03734439834024896
aF0.045454545454545456
aF0.0411522633744856
aF0.04918032786885246
aF0.044897959183673466
aF0.052845528455284556
aF0.06072874493927125
aF0.056451612903225805
aF0.05220883534136546
aF0.06
aF0.06772908366533864
aF0.06349206349206349
aF0.05928853754940711
aF0.06692913385826772
aF0.07450980392156863
aF0.0703125
aF0.07782101167315175
aF0.07364341085271318
aF0.0694980694980695
aF0.06538461538461539
aF0.07279693486590039
aF0.08015267175572519
aF0.08745247148288973
aF0.08333333333333333
aF0.09056603773584905
aF0.09774436090225563
aF0.08614232209737828
aF0.08208955223880597
aF0.07806691449814127
aF0.07407407407407407
aF0.08118081180811808
aF0.07720588235294118
aF0.08424908424908426
aF0.09124087591240876
aF0.09818181818181818
aF0.10507246376811594
aF0.10108303249097472
aF0.09712230215827339
aF0.1039426523297491
aF0.1
aF0.09608540925266904
aF0.10283687943262411
aF0.0989399293286219
aF0.09507042253521127
aF0.0912280701754386
aF0.0979020979020979
aF0.10452961672473868
aF0.10069444444444445
aF0.09688581314878893
aF0.09310344827586207
aF0.08247422680412371
aF0.08904109589041095
aF0.08532423208191127
aF0.08163265306122448
aF0.07796610169491526
aF0.07432432432432433
aF0.0707070707070707
aF0.07718120805369127
aF0.08361204013377926
aF0.08
aF0.07641196013289037
aF0.0728476821192053
aF0.06930693069306931
aF0.06578947368421052
aF0.06229508196721312
aF0.058823529411764705
aF0.05537459283387622
aF0.05194805194805195
aF0.05825242718446602
aF0.06451612903225806
aF0.06109324758842444
aF0.0673076923076923
aF0.06389776357827476
aF0.06050955414012739
aF0.06666666666666667
aF0.07278481012658228
aF0.0694006309148265
aF0.0660377358490566
aF0.06269592476489028
aF0.06875
aF0.06542056074766354
aF0.062111801242236024
aF0.058823529411764705
aF0.06481481481481481
aF0.06153846153846154
aF0.06748466257668712
aF0.07339449541284404
aF0.0701219512195122
aF0.0668693009118541
aF0.07272727272727272
aF0.06948640483383686
aF0.07530120481927711
aF0.08108108108108109
aF0.08682634730538923
aF0.08358208955223881
aF0.08035714285714286
aF0.0771513353115727
aF0.07396449704142012
aF0.07079646017699115
aF0.06764705882352941
aF0.06451612903225806
aF0.06140350877192982
aF0.06705539358600583
aF0.07267441860465117
aF0.06376811594202898
aF0.06069364161849711
aF0.06628242074927954
aF0.06321839080459771
aF0.06017191977077364
aF0.05714285714285714
aF0.05413105413105413
aF0.05113636363636364
aF0.056657223796033995
aF0.05367231638418079
aF0.059154929577464786
aF0.05056179775280899
aF0.056022408963585436
aF0.061452513966480445
aF0.0584958217270195
aF0.05555555555555555
aF0.05263157894736842
aF0.058011049723756904
aF0.05509641873278237
aF0.06043956043956044
aF0.052054794520547946
aF0.04918032786885246
aF0.04632152588555858
aF0.03804347826086957
aF0.03523035230352303
aF0.032432432432432434
aF0.03773584905660377
aF0.03494623655913978
aF0.040214477211796246
aF0.045454545454545456
aF0.050666666666666665
aF0.047872340425531915
aF0.04509283819628647
aF0.05026455026455026
aF0.04221635883905013
aF0.039473684210526314
aF0.03674540682414698
aF0.034031413612565446
aF0.031331592689295036
aF0.028645833333333332
aF0.025974025974025976
aF0.018134715025906734
aF0.023255813953488372
aF0.028350515463917526
aF0.02570694087403599
aF0.023076923076923078
aF0.028132992327365727
aF0.025510204081632654
aF0.022900763358778626
aF0.027918781725888325
aF0.03291139240506329
aF0.03787878787878788
aF0.03526448362720403
aF0.032663316582914576
aF0.03007518796992481
aF0.035
aF0.032418952618453865
aF0.03731343283582089
aF0.04218362282878412
aF0.039603960396039604
aF0.044444444444444446
aF0.04187192118226601
aF0.04668304668304668
aF0.04411764705882353
aF0.04156479217603912
aF0.046341463414634146
aF0.051094890510948905
aF0.043689320388349516
aF0.048426150121065374
aF0.04589371980676329
aF0.043373493975903614
aF0.04807692307692308
aF0.045563549160671464
aF0.0430622009569378
aF0.0405727923627685
aF0.0380952380952381
aF0.035629453681710214
aF0.03317535545023697
aF0.030732860520094562
aF0.02830188679245283
aF0.02588235294117647
aF0.023474178403755867
aF0.02107728337236534
aF0.018691588785046728
aF0.016317016317016316
aF0.013953488372093023
aF0.018561484918793503
aF0.023148148148148147
aF0.020785219399538105
aF0.02534562211981567
aF0.029885057471264367
aF0.027522935779816515
aF0.032036613272311214
aF0.02511415525114155
aF0.022779043280182234
aF0.020454545454545454
aF0.024943310657596373
aF0.029411764705882353
aF0.02708803611738149
aF0.024774774774774775
aF0.02247191011235955
aF0.026905829596412557
aF0.03131991051454139
aF0.03571428571428571
aF0.0400890868596882
aF0.044444444444444446
aF0.04878048780487805
aF0.046460176991150445
aF0.039735099337748346
aF0.037444933920704845
aF0.035164835164835165
aF0.039473684210526314
aF0.037199124726477024
aF0.034934497816593885
aF0.032679738562091505
aF0.030434782608695653
aF0.028199566160520606
aF0.032467532467532464
aF0.03023758099352052
aF0.028017241379310345
aF0.025806451612903226
aF0.023605150214592276
aF0.027837259100642397
aF0.02564102564102564
aF0.019189765458422176
aF0.023404255319148935
aF0.021231422505307854
aF0.019067796610169493
aF0.016913319238900635
aF0.02109704641350211
aF0.02526315789473684
aF0.023109243697478993
aF0.027253668763102725
aF0.02510460251046025
aF0.018789144050104383
aF0.0125
aF0.016632016632016633
aF0.014522821576763486
aF0.018633540372670808
aF0.012396694214876033
aF0.010309278350515464
aF0.00823045267489712
aF0.006160164271047228
aF0.004098360655737705
aF0.002044989775051125
aF0.0
aF-0.002036659877800407
aF-0.0040650406504065045
aF0.0
aF-0.0020242914979757085
aF-0.00404040404040404
aF-0.010080645161290322
aF-0.012072434607645875
aF-0.014056224899598393
aF-0.01002004008016032
aF-0.012
aF-0.013972055888223553
aF-0.0099601593625498
aF-0.005964214711729622
aF-0.007936507936507936
aF-0.009900990099009901
aF-0.005928853754940711
aF-0.007889546351084813
aF-0.003937007874015748
aF-0.005893909626719057
aF-0.00196078431372549
aF0.0019569471624266144
aF0.0
aF0.003898635477582846
aF0.0019455252918287938
aF0.005825242718446602
aF0.003875968992248062
aF0.0019342359767891683
aF0.0
aF-0.0019267822736030828
aF-0.0038461538461538464
aF-0.005758157389635317
aF-0.0019157088122605363
aF0.0019120458891013384
aF0.0057251908396946565
aF0.009523809523809525
aF0.013307984790874524
aF0.011385199240986717
aF0.00946969696969697
aF0.007561436672967864
aF0.005660377358490566
aF0.003766478342749529
aF0.007518796992481203
aF0.01125703564727955
aF0.009363295880149813
aF0.007476635514018692
aF0.011194029850746268
aF0.00931098696461825
aF0.007434944237918215
aF0.0055658627087198514
aF0.009259259259259259
aF0.0073937153419593345
aF0.005535055350553505
aF0.009208103130755065
aF0.012867647058823529
aF0.011009174311926606
aF0.014652014652014652
aF0.012797074954296161
aF0.010948905109489052
aF0.009107468123861567
aF0.012727272727272728
aF0.016333938294010888
aF0.014492753623188406
aF0.018083182640144666
aF0.016245487364620937
aF0.014414414414414415
aF0.017985611510791366
aF0.02154398563734291
aF0.01971326164874552
aF0.017889087656529516
aF0.02142857142857143
aF0.0196078431372549
aF0.017793594306049824
aF0.015985790408525755
aF0.014184397163120567
aF0.012389380530973451
aF0.01060070671378092
aF0.014109347442680775
aF0.017605633802816902
aF0.015817223198594025
aF0.01929824561403509
aF0.017513134851138354
aF0.015734265734265736
aF0.019197207678883072
aF0.017421602787456445
aF0.020869565217391306
aF0.019097222222222224
aF0.01733102253032929
aF0.020761245674740483
aF0.018998272884283247
aF0.017241379310344827
aF0.01549053356282272
aF0.018900343642611683
aF0.017152658662092625
aF0.02054794520547945
aF0.018803418803418803
aF0.017064846416382253
aF0.015332197614991482
aF0.013605442176870748
aF0.011884550084889643
aF0.015254237288135594
aF0.01353637901861252
aF0.011824324324324325
aF0.01011804384485666
aF0.013468013468013467
aF0.011764705882352941
aF0.015100671140939598
aF0.01340033500837521
aF0.011705685618729096
aF0.01001669449081803
aF0.013333333333333334
aF0.016638935108153077
aF0.014950166112956811
aF0.01824212271973466
aF0.02152317880794702
aF0.024793388429752067
aF0.0231023102310231
aF0.0214168039538715
aF0.019736842105263157
aF0.0180623973727422
aF0.021311475409836064
aF0.019639934533551555
aF0.017973856209150325
aF0.021207177814029365
aF0.024429967426710098
aF0.027642276422764227
aF0.030844155844155844
aF0.029173419773095625
aF0.032362459546925564
aF0.035541195476575124
aF0.03870967741935484
aF0.04186795491143317
aF0.04019292604501608
aF0.038523274478330656
aF0.03685897435897436
aF0.0352
aF0.038338658146964855
aF0.04146730462519936
aF0.03980891719745223
aF0.04292527821939587
aF0.04126984126984127
aF0.044374009508716325
aF0.04272151898734177
aF0.045813586097946286
aF0.04889589905362776
aF0.047244094488188976
aF0.04559748427672956
aF0.04395604395604396
aF0.047021943573667714
aF0.04538341158059468
aF0.0484375
aF0.0514820592823713
aF0.04984423676012461
aF0.05287713841368585
aF0.05124223602484472
aF0.046511627906976744
aF0.04489164086687306
aF0.04791344667697063
aF0.046296296296296294
aF0.04468412942989214
aF0.043076923076923075
aF0.041474654377880185
aF0.04447852760736196
aF0.042879019908116385
aF0.045871559633027525
aF0.044274809160305344
aF0.042682926829268296
aF0.045662100456621
aF0.044072948328267476
aF0.04704097116843703
aF0.045454545454545456
aF0.04387291981845688
aF0.04682779456193353
aF0.04524886877828054
aF0.043674698795180725
aF0.042105263157894736
aF0.04054054054054054
aF0.038980509745127435
aF0.0374251497005988
aF0.04035874439461883
aF0.03880597014925373
aF0.037257824143070044
aF0.03571428571428571
aF0.03417533432392273
aF0.037091988130563795
aF0.035555555555555556
aF0.038461538461538464
aF0.0413589364844904
aF0.03982300884955752
aF0.03829160530191458
aF0.041176470588235294
aF0.039647577092511016
aF0.03812316715542522
aF0.036603221083455345
aF0.03508771929824561
aF0.033576642335766425
aF0.03644314868804665
aF0.039301310043668124
aF0.04215116279069767
aF0.040638606676342524
aF0.0391304347826087
aF0.03762662807525326
aF0.036127167630057806
aF0.03463203463203463
aF0.03314121037463977
aF0.03597122302158273
aF0.034482758620689655
aF0.03299856527977044
aF0.03581661891117478
aF0.034334763948497854
aF0.037142857142857144
aF0.039942938659058486
aF0.038461538461538464
aF0.041251778093883355
aF0.04403409090909091
aF0.0425531914893617
aF0.0453257790368272
aF0.04384724186704385
aF0.0423728813559322
aF0.04090267983074753
aF0.03943661971830986
aF0.04219409282700422
aF0.0449438202247191
aF0.047685834502103785
aF0.05042016806722689
aF0.05314685314685315
aF0.055865921787709494
aF0.05439330543933055
aF0.052924791086350974
aF0.055632823365785816
aF0.05416666666666667
aF0.056865464632454926
aF0.05955678670360111
aF0.058091286307053944
aF0.05662983425414365
aF0.05517241379310345
aF0.05371900826446281
aF0.052269601100412656
aF0.054945054945054944
aF0.05761316872427984
aF0.056164383561643834
aF0.058823529411764705
aF0.05737704918032787
aF0.05593451568894952
aF0.05858310626702997
aF0.061224489795918366
aF0.059782608695652176
aF0.05834464043419267
aF0.05420054200542006
aF0.05277401894451962
aF0.051351351351351354
aF0.04993252361673414
aF0.04851752021563342
aF0.05114401076716016
aF0.053763440860215055
aF0.052348993288590606
aF0.05093833780160858
aF0.049531459170013385
aF0.05213903743315508
aF0.05473965287049399
aF0.05333333333333334
aF0.05193075898801598
aF0.05452127659574468
aF0.05312084993359894
aF0.05172413793103448
aF0.05033112582781457
aF0.04894179894179894
aF0.04491413474240423
aF0.047493403693931395
aF0.0461133069828722
aF0.04473684210526316
aF0.04336399474375821
aF0.03937007874015748
aF0.03800786369593709
aF0.03664921465968586
aF0.03529411764705882
aF0.037859007832898174
aF0.03650586701434159
aF0.0390625
aF0.0377113133940182
aF0.03636363636363636
aF0.038910505836575876
aF0.03756476683937824
aF0.03622250970245795
aF0.03875968992248062
aF0.03741935483870968
aF0.03608247422680412
aF0.03861003861003861
aF0.04113110539845758
aF0.03979460847240052
aF0.038461538461538464
aF0.03713188220230474
aF0.03580562659846547
aF0.034482758620689655
aF0.036989795918367346
aF0.035668789808917196
aF0.03816793893129771
aF0.036848792884371026
aF0.03553299492385787
aF0.03802281368821293
aF0.03670886075949367
aF0.035398230088495575
aF0.03409090909090909
aF0.03278688524590164
aF0.031486146095717885
aF0.03018867924528302
aF0.032663316582914576
aF0.03136762860727729
aF0.03007518796992481
aF0.03254067584480601
aF0.03125
aF0.033707865168539325
aF0.032418952618453865
aF0.034869240348692404
aF0.033582089552238806
aF0.03602484472049689
aF0.038461538461538464
aF0.040892193308550186
aF0.039603960396039604
aF0.038318912237330034
aF0.037037037037037035
aF0.035758323057953144
aF0.034482758620689655
aF0.033210332103321034
aF0.03562653562653563
aF0.0343558282208589
aF0.03308823529411765
aF0.03182374541003672
aF0.034229828850855744
aF0.03663003663003663
aF0.03536585365853658
aF0.031668696711327646
aF0.030413625304136254
aF0.02916160388821385
aF0.03155339805825243
aF0.03393939393939394
aF0.03268765133171913
aF0.03506650544135429
aF0.03743961352657005
aF0.039806996381182146
aF0.04216867469879518
aF0.0421179302045728
aF0.040865384615384616
aF0.04321728691476591
aF0.04196642685851319
aF0.04431137724550898
aF0.0430622009569378
aF0.04540023894862605
aF0.0441527446300716
aF0.04648390941597139
aF0.04285714285714286
aF0.041617122473246136
aF0.043942992874109264
aF0.04033214709371293
aF0.03909952606635071
aF0.04142011834319527
aF0.04373522458628842
aF0.04604486422668241
aF0.04834905660377359
aF0.04711425206124853
aF0.04588235294117647
aF0.04465334900117509
aF0.046948356807511735
aF0.04572098475967175
aF0.04800936768149883
aF0.04678362573099415
aF0.0455607476635514
aF0.044340723453908985
aF0.04312354312354312
aF0.04190919674039581
aF0.044186046511627906
aF0.0429732868757259
aF0.04176334106728538
aF0.0440324449594438
aF0.04282407407407408
aF0.04508670520231214
aF0.04157043879907621
aF0.040369088811995385
aF0.03917050691244239
aF0.0379746835443038
aF0.040229885057471264
aF0.03903559127439724
aF0.03784403669724771
aF0.03436426116838488
aF0.03318077803203661
aF0.032
aF0.030821917808219176
aF0.029646522234891677
aF0.02847380410022779
aF0.027303754266211604
aF0.029545454545454545
aF0.028376844494892167
aF0.024943310657596373
aF0.02378255945639864
aF0.026018099547511313
aF0.024858757062146894
aF0.023702031602708805
aF0.02254791431792559
aF0.021396396396396396
aF0.020247469066366704
aF0.019101123595505618
aF0.017957351290684626
aF0.020179372197309416
aF0.019036954087346025
aF0.015659955257270694
aF0.01452513966480447
aF0.013392857142857142
aF0.012263099219620958
aF0.011135857461024499
aF0.010011123470522803
aF0.012222222222222223
aF0.014428412874583796
aF0.01662971175166297
aF0.018826135105204873
aF0.02101769911504425
aF0.019889502762430938
aF0.018763796909492272
aF0.017640573318632856
aF0.019823788546255508
aF0.0187018701870187
aF0.017582417582417582
aF0.019758507135016465
aF0.01864035087719298
aF0.017524644030668127
aF0.016411378555798686
aF0.015300546448087432
aF0.017467248908296942
aF0.019629225736095966
aF0.018518518518518517
aF0.017410228509249184
aF0.01956521739130435
aF0.018458197611292075
aF0.020607375271149676
aF0.01950162513542795
aF0.0183982683982684
aF0.017297297297297298
aF0.016198704103671708
aF0.015102481121898598
aF0.017241379310344827
aF0.016146393972012917
aF0.01827956989247312
aF0.02040816326530612
aF0.019313304721030045
aF0.01822079314040729
aF0.020342612419700215
aF0.019251336898395723
aF0.018162393162393164
aF0.017075773745997867
aF0.019189765458422176
aF0.01810436634717785
aF0.01702127659574468
aF0.015940488841657812
aF0.018046709129511677
aF0.02014846235418876
aF0.022245762711864406
aF0.021164021164021163
aF0.0200845665961945
aF0.01900739176346357
aF0.02109704641350211
aF0.023182297154899896
aF0.022105263157894735
aF0.02103049421661409
aF0.01995798319327731
aF0.016789087093389297
aF0.013626834381551363
aF0.012565445026178011
aF0.011506276150627616
aF0.01044932079414838
aF0.007306889352818371
aF0.009384775808133473
aF0.008333333333333333
aF0.007284079084287201
aF0.006237006237006237
aF0.005192107995846314
aF0.004149377593360996
aF0.0062176165803108805
aF0.005175983436853002
aF0.007238883143743537
aF0.006198347107438017
aF0.008255933952528379
aF0.007216494845360825
aF0.006179196704428424
aF0.00823045267489712
aF0.010277492291880781
aF0.009240246406570842
aF0.008205128205128205
aF0.010245901639344262
aF0.009211873080859774
aF0.0081799591002045
aF0.007150153217568948
aF0.006122448979591836
aF0.0050968399592252805
aF0.007128309572301426
aF0.006103763987792472
aF0.008130081300813009
aF0.007106598984771574
aF0.006085192697768763
aF0.008105369807497468
aF0.010121457489878543
aF0.012133468149646108
aF0.011111111111111112
aF0.010090817356205853
aF0.012096774193548387
aF0.014098690835850957
aF0.013078470824949699
aF0.01507537688442211
aF0.014056224899598393
aF0.013039117352056168
aF0.01503006012024048
aF0.01701701701701702
aF0.016
aF0.014985014985014986
aF0.016966067864271458
aF0.015952143569292122
aF0.014940239043824702
aF0.01691542288557214
aF0.018886679920477135
aF0.01787487586891758
aF0.01984126984126984
aF0.018830525272547076
aF0.01782178217821782
aF0.01483679525222552
aF0.01383399209486166
aF0.012833168805528134
aF0.011834319526627219
aF0.01083743842364532
aF0.00984251968503937
aF0.011799410029498525
aF0.010805500982318271
aF0.009813542688910697
aF0.008823529411764706
aF0.007835455435847209
aF0.00684931506849315
aF0.008797653958944282
aF0.0107421875
aF0.012682926829268294
aF0.014619883040935672
aF0.016553067185978577
aF0.01556420233463035
aF0.01749271137026239
aF0.01650485436893204
aF0.01842870999030068
aF0.01744186046511628
aF0.016456921587608905
aF0.0183752417794971
aF0.020289855072463767
aF0.0222007722007722
aF0.021215043394406944
aF0.02023121387283237
aF0.02213666987487969
aF0.021153846153846155
aF0.020172910662824207
aF0.022072936660268713
aF0.02109300095877277
aF0.020114942528735632
aF0.019138755980861243
aF0.021032504780114723
aF0.02005730659025788
aF0.019083969465648856
aF0.020972354623450904
aF0.022857142857142857
aF0.024738344433872503
aF0.02376425855513308
aF0.02564102564102564
aF0.024667931688804556
aF0.023696682464454975
aF0.02556818181818182
aF0.02459791863765374
aF0.026465028355387523
aF0.028328611898016998
aF0.03018867924528302
aF0.03204524033930255
aF0.031073446327683617
aF0.03292568203198495
aF0.03195488721804511
aF0.030985915492957747
aF0.03283302063789869
aF0.031865042174320526
aF0.033707865168539325
aF0.03086997193638915
aF0.03271028037383177
aF0.029878618113912233
aF0.028917910447761194
aF0.03075489282385834
aF0.032588454376163874
aF0.03162790697674418
aF0.03066914498141264
aF0.032497678737233054
aF0.03153988868274583
aF0.033364226135310475
aF0.032407407407407406
aF0.03145235892691952
aF0.033271719038817
aF0.032317636195752536
aF0.03136531365313653
aF0.03317972350230415
aF0.03222836095764273
aF0.031278748850046
aF0.03308823529411765
aF0.03489439853076217
aF0.03394495412844037
aF0.03299725022914757
aF0.03021978021978022
aF0.0292772186642269
aF0.0283363802559415
aF0.0273972602739726
aF0.029197080291970802
aF0.028258887876025523
aF0.030054644808743168
aF0.03184713375796178
aF0.03090909090909091
aF0.0326975476839237
aF0.03176043557168784
aF0.030825022665457842
aF0.03260869565217391
aF0.03167420814479638
aF0.03074141048824593
aF0.02981029810298103
aF0.02707581227436823
aF0.028854824165915238
aF0.027927927927927927
aF0.027002700270027002
aF0.026079136690647483
aF0.025157232704402517
aF0.02423698384201077
aF0.021524663677130046
aF0.02060931899641577
aF0.019695613249776187
aF0.02146690518783542
aF0.020554066130473638
aF0.022321428571428572
aF0.021409455842997322
aF0.020499108734402853
aF0.019590382902938557
aF0.018683274021352312
aF0.017777777777777778
aF0.019538188277087035
aF0.018633540372670808
aF0.01773049645390071
aF0.01948627103631532
aF0.018584070796460177
aF0.020335985853227233
aF0.022084805653710248
aF0.02118270079435128
aF0.020282186948853614
aF0.019383259911894272
aF0.018485915492957746
aF0.01759014951627089
aF0.019332161687170474
aF0.021071115013169446
aF0.018421052631578946
aF0.017528483786152498
aF0.016637478108581436
aF0.015748031496062992
aF0.01486013986013986
aF0.013973799126637555
aF0.015706806282722512
aF0.017436791630340016
aF0.016550522648083623
aF0.015665796344647518
aF0.014782608695652174
aF0.016507384882710686
aF0.015625
aF0.014744145706851692
aF0.01386481802426343
aF0.012987012987012988
aF0.012110726643598616
aF0.013828867761452032
aF0.012953367875647668
aF0.012079378774805867
aF0.011206896551724138
aF0.0103359173126615
aF0.00946643717728055
aF0.008598452278589854
aF0.010309278350515464
aF0.01201716738197425
aF0.0137221269296741
aF0.015424164524421594
aF0.014554794520547944
aF0.013686911890504704
aF0.015384615384615385
aF0.014517506404782237
aF0.013651877133105802
aF0.01278772378516624
aF0.014480408858603067
aF0.016170212765957447
aF0.017857142857142856
aF0.01954120645709431
aF0.01867572156196944
aF0.020356234096692113
aF0.017796610169491526
aF0.01947502116850127
aF0.018612521150592216
aF0.02028740490278952
aF0.019425675675675675
aF0.018565400843881856
aF0.016020236087689713
aF0.015164279696714406
aF0.012626262626262626
aF0.011774600504625737
aF0.009243697478991597
aF0.0109151973131822
aF0.012583892617449664
aF0.01173512154233026
aF0.010887772194304857
aF0.012552301255230125
aF0.010033444816053512
aF0.009189640768588136
aF0.008347245409015025
aF0.010008340283569641
aF0.009166666666666667
aF0.010824313072439634
aF0.012479201331114808
aF0.014131338320864505
aF0.015780730897009966
aF0.014937759336099586
aF0.01658374792703151
aF0.015741507870753936
aF0.0173841059602649
aF0.016542597187758478
aF0.015702479338842976
aF0.017341040462427744
aF0.0165016501650165
aF0.018136850783182192
aF0.019769357495881382
aF0.018930041152263374
aF0.02055921052631579
aF0.02218570254724733
aF0.021346469622331693
aF0.020508613617719443
aF0.022131147540983605
aF0.02375102375102375
aF0.022913256955810146
aF0.022076860179885527
aF0.02369281045751634
aF0.022857142857142857
aF0.024469820554649267
aF0.023634881825590873
aF0.025244299674267102
aF0.026851098454027666
aF0.026016260162601626
aF0.02761982128350934
aF0.02922077922077922
aF0.028386050283860504
aF0.029983792544570502
aF0.031578947368421054
aF0.030744336569579287
aF0.029911075181891674
aF0.029079159935379646
aF0.03066989507667474
aF0.029838709677419355
aF0.029008863819500404
aF0.02818035426731079
aF0.027353177795655673
aF0.02491961414790997
aF0.02650602409638554
aF0.028089887640449437
aF0.0272654370489174
aF0.026442307692307692
aF0.025620496397117692
aF0.0248
aF0.026378896882494004
aF0.027955271565495207
aF0.029529130087789304
aF0.03110047846889952
aF0.03266932270916335
aF0.03184713375796178
aF0.031026252983293555
aF0.030206677265500796
aF0.02938840349483717
aF0.02857142857142857
aF0.02775574940523394
aF0.029318541996830427
aF0.028503562945368172
aF0.030063291139240507
aF0.02924901185770751
aF0.02843601895734597
aF0.02999210734017364
aF0.031545741324921134
aF0.029156816390858944
aF0.028346456692913385
aF0.02989771833202203
aF0.02908805031446541
aF0.028279654359780047
aF0.029827315541601257
aF0.029019607843137254
aF0.030564263322884012
aF0.02975724353954581
aF0.028951486697965573
aF0.028146989835809225
aF0.02734375
aF0.02654176424668228
aF0.028081123244929798
aF0.027279812938425563
aF0.02881619937694704
aF0.030350194552529183
aF0.027993779160186624
aF0.027195027195027196
aF0.026397515527950312
aF0.02560124127230411
aF0.024806201550387597
aF0.024012393493415957
aF0.025541795665634675
aF0.02474864655839134
aF0.023956723338485315
aF0.021621621621621623
aF0.020833333333333332
aF0.020046260601387818
aF0.01926040061633282
aF0.018475750577367205
aF0.02
aF0.01921598770176787
aF0.018433179723502304
aF0.017651573292402148
aF0.01687116564417178
aF0.016091954022988506
aF0.015313935681470138
aF0.016832440703902066
aF0.016055045871559634
aF0.015278838808250574
aF0.01450381679389313
aF0.016018306636155607
aF0.01524390243902439
aF0.014470677837014471
aF0.0136986301369863
aF0.012927756653992395
aF0.014437689969604863
aF0.01366742596810934
aF0.012898330804248861
aF0.014404852160727824
aF0.012121212121212121
aF0.013626040878122634
aF0.015128593040847202
aF0.01436130007558579
aF0.015861027190332326
aF0.017358490566037735
aF0.016591251885369532
aF0.014318010550113038
aF0.01355421686746988
aF0.012791572610985704
aF0.012030075187969926
aF0.011269722013523666
aF0.010510510510510511
aF0.009752438109527382
aF0.008995502248875561
aF0.010486891385767791
aF0.009730538922155689
aF0.008975317875841436
aF0.01046337817638266
aF0.01194921583271098
aF0.011194029850746268
aF0.01267710663683818
aF0.011922503725782414
aF0.011169024571854059
aF0.010416666666666666
aF0.009665427509293681
aF0.011144130757800892
aF0.012620638455827766
aF0.011869436201780416
aF0.01111934766493699
aF0.01037037037037037
aF0.009622501850481125
aF0.008875739644970414
aF0.008130081300813009
aF0.009601181683899557
aF0.007380073800738007
aF0.00663716814159292
aF0.0058953574060427415
aF0.007363770250368188
aF0.008830022075055188
aF0.010294117647058823
aF0.011756061719324026
aF0.011013215859030838
aF0.010271460014673514
aF0.009530791788856305
aF0.007326007326007326
aF0.006588579795021962
aF0.005852231163130944
aF0.007309941520467836
aF0.006574141709276844
aF0.004379562043795621
aF0.0036469730123997084
aF0.00510204081632653
aF0.004369992716678805
aF0.00363901018922853
aF0.002909090909090909
aF0.00436046511627907
aF0.0036310820624546117
aF0.002902757619738752
aF0.002175489485134155
aF0.0014492753623188406
aF0.000724112961622013
aF0.0
aF0.0014461315979754157
aF0.000722543352601156
aF0.0
aF-0.0021645021645021645
aF-0.002883922134102379
aF-0.001440922190201729
aF0.0
aF0.0014388489208633094
aF0.0007189072609633358
aF0.0
aF0.0014357501794687725
aF0.0007173601147776184
aF0.0
aF-0.0007163323782234957
aF-0.0014316392269148174
aF0.0
aF0.0014295925661186562
aF0.0007142857142857143
aF0.0
aF-0.0007132667617689016
aF-0.0014255167498218105
aF0.0
aF-0.0007117437722419929
aF-0.001422475106685633
aF-0.0021321961620469083
aF-0.002840909090909091
aF-0.0014194464158978
aF-0.002127659574468085
aF-0.0007087172218284905
aF-0.00141643059490085
aF-0.003538570417551309
aF-0.0021216407355021216
aF-0.0028268551236749115
aF-0.0014124293785310734
aF-0.002117148906139732
aF-0.0007052186177715092
aF-0.0014094432699083862
aF-0.002112676056338028
aF-0.0028149190710767065
aF-0.0035161744022503515
aF-0.004216444132115249
aF-0.0049157303370786515
aF-0.005614035087719298
aF-0.006311360448807854
aF-0.00700770847932726
aF-0.0056022408963585435
aF-0.006298110566829951
aF-0.006993006993006993
aF-0.005590496156533892
aF-0.006284916201117319
aF-0.006978367062107467
aF-0.007670850767085077
aF-0.0062717770034843206
aF-0.006963788300835654
aF-0.007654836464857342
aF-0.006258692628650904
aF-0.006949270326615705
aF-0.007638888888888889
aF-0.006245662734212352
aF-0.008321775312066574
aF-0.009009009009009009
aF-0.009695290858725761
aF-0.010380622837370242
aF-0.011065006915629323
aF-0.011748445058742226
aF-0.012430939226519336
aF-0.013112491373360938
aF-0.013793103448275862
aF-0.014472777394900068
aF-0.015151515151515152
aF-0.015829318651066758
aF-0.016506189821182942
aF-0.01718213058419244
aF-0.017857142857142856
aF-0.016472203157172273
aF-0.017146776406035666
aF-0.01782042494859493
aF-0.01643835616438356
aF-0.015058179329226557
aF-0.013679890560875513
aF-0.012303485987696514
aF-0.012978142076502733
aF-0.011604095563139932
aF-0.01227830832196453
aF-0.010906612133605999
aF-0.011580381471389645
aF-0.012253233492171545
aF-0.010884353741496598
aF-0.011556764106050306
aF-0.010190217391304348
aF-0.010862186014935505
aF-0.011533242876526458
aF-0.012203389830508475
aF-0.012872628726287264
aF-0.013540961408259987
aF-0.012178619756427604
aF-0.010818120351588911
aF-0.00945945945945946
aF-0.008102633355840648
aF-0.006747638326585695
aF-0.007417397167902899
aF-0.008086253369272238
aF-0.006734006734006734
aF-0.008748317631224764
aF-0.00941492938802959
aF-0.0114247311827957
aF-0.01208865010073875
aF-0.012751677852348993
aF-0.01341381623071764
aF-0.012064343163538873
aF-0.012726054922973878
aF-0.013386880856760375
aF-0.014046822742474917
aF-0.016042780748663103
aF-0.016700066800267203
aF-0.017356475300400534
aF-0.01801200800533689
aF-0.018666666666666668
aF-0.017321785476349102
aF-0.019307589880159785
aF-0.01996007984031936
aF-0.020611702127659573
aF-0.0212624584717608
aF-0.021912350597609563
aF-0.0225613802256138
aF-0.023209549071618037
aF-0.02385685884691849
aF-0.024503311258278145
aF-0.02514890800794176
aF-0.025793650793650792
aF-0.024454725710508923
aF-0.023117569352708058
aF-0.02178217821782178
aF-0.020448548812664908
aF-0.02109426499670402
aF-0.021739130434782608
aF-0.02238314680710994
aF-0.021052631578947368
aF-0.01972386587771203
aF-0.018396846254927726
aF-0.019041365725541694
aF-0.017716535433070866
aF-0.018360655737704918
aF-0.01703800786369594
aF-0.01899148657498363
aF-0.01767015706806283
aF-0.01831262262916939
aF-0.01895424836601307
aF-0.019595035924232528
aF-0.018276762402088774
aF-0.016960208741030658
aF-0.017601043024771838
aF-0.016286644951140065
aF-0.018229166666666668
aF-0.018867924528301886
aF-0.01950585175552666
aF-0.02014294996751137
aF-0.02077922077922078
aF-0.021414665801427646
aF-0.02204928664072633
aF-0.020738820479585224
aF-0.021373056994818652
aF-0.022006472491909384
aF-0.022639068564036222
aF-0.023270846800258566
aF-0.023901808785529714
aF-0.024531956100710135
aF-0.026451612903225806
aF-0.027079303675048357
aF-0.027706185567010308
aF-0.026400515132002575
aF-0.02702702702702703
aF-0.02765273311897106
aF-0.028277634961439587
aF-0.028901734104046242
aF-0.03080872913992298
aF-0.03143040410519564
aF-0.03205128205128205
aF-0.03267136450992953
aF-0.03329065300896287
aF-0.03198976327575176
aF-0.03260869565217391
aF-0.033226837060702875
aF-0.03384418901660281
aF-0.03446075303126994
aF-0.035076530612244895
aF-0.035691523263224986
aF-0.03630573248407643
aF-0.036919159770846595
aF-0.037531806615776084
aF-0.036236490781945324
aF-0.036848792884371026
aF-0.03746031746031746
aF-0.03807106598984772
aF-0.03868103994927077
aF-0.03929024081115336
aF-0.039898670044331855
aF-0.04050632911392405
aF-0.041113219481340925
aF-0.041719342604298354
aF-0.04232469993682881
aF-0.04292929292929293
aF-0.0416403785488959
aF-0.04224464060529634
aF-0.04095778197857593
aF-0.041561712846347604
aF-0.04216488357457521
aF-0.042767295597484274
aF-0.04336895034569453
aF-0.04396984924623116
aF-0.045825486503452605
aF-0.04642409033877039
aF-0.047021943573667714
aF-0.047619047619047616
aF-0.048215403882279274
aF-0.04693366708385482
aF-0.045653533458411506
aF-0.044375
aF-0.043098063710181135
aF-0.04369538077403246
aF-0.044291952588895823
aF-0.043017456359102244
aF-0.04361370716510903
aF-0.045454545454545456
aF-0.04418170504044804
aF-0.04477611940298507
aF-0.045369794903666875
aF-0.04596273291925466
aF-0.04655493482309125
aF-0.04714640198511166
aF-0.04587724736515809
aF-0.046468401486988845
aF-0.047058823529411764
aF-0.04764851485148515
aF-0.04638218923933209
aF-0.04511742892459827
aF-0.04570722668313774
aF-0.046296296296296294
aF-0.04688463911165947
aF-0.047472256473489516
aF-0.04805914972273567
aF-0.046798029556650245
aF-0.047384615384615386
aF-0.04797047970479705
aF-0.04855562384757222
aF-0.0472972972972973
aF-0.04604051565377532
aF-0.046625766871165646
aF-0.04721030042918455
aF-0.04779411764705882
aF-0.04837721984078383
aF-0.04895960832313342
aF-0.047706422018348627
aF-0.04828850855745721
aF-0.047037263286499695
aF-0.047619047619047616
aF-0.04820012202562538
aF-0.04878048780487805
aF-0.050578915295551495
aF-0.04933008526187576
aF-0.04990870359099209
aF-0.05048661800486618
aF-0.05106382978723404
aF-0.05164034021871203
aF-0.050394656952034
aF-0.050970873786407765
aF-0.05154639175257732
aF-0.0503030303030303
aF-0.050878255602665054
aF-0.04963680387409201
aF-0.05021173623714459
aF-0.04897218863361548
aF-0.04773413897280967
aF-0.04830917874396135
aF-0.04888352444176222
aF-0.04945717732207479
aF-0.04822182037371911
aF-0.046987951807228916
aF-0.04876580373269115
aF-0.049338146811071
aF-0.04990980156343957
aF-0.05048076923076923
aF-0.05105105105105105
aF-0.05162064825930372
aF-0.052189562087582485
aF-0.05275779376498801
aF-0.053325344517675254
aF-0.05389221556886228
aF-0.054458408138839016
aF-0.05502392344497608
aF-0.05379557680812911
aF-0.052568697729988054
aF-0.051343283582089554
aF-0.05190930787589499
aF-0.05247465712581992
aF-0.054231227651966626
aF-0.053007742703990474
aF-0.05178571428571429
aF-0.05056513979773944
aF-0.05112960760998811
aF-0.05169340463458111
aF-0.050475059382422804
aF-0.04925816023738872
aF-0.051008303677342826
aF-0.051570835803200946
aF-0.052132701421800945
aF-0.05091770278271166
aF-0.051479289940828406
aF-0.05204021289178001
aF-0.05260047281323877
aF-0.05138806851742469
aF-0.05194805194805195
aF-0.052507374631268436
aF-0.054245283018867926
aF-0.05480259281084266
aF-0.0535924617196702
aF-0.052383755150088286
aF-0.052941176470588235
aF-0.05173427395649618
aF-0.05346650998824912
aF-0.05226071638285379
aF-0.0528169014084507
aF-0.05161290322580645
aF-0.05216881594372802
aF-0.05272407732864675
aF-0.05152224824355972
aF-0.05032182562902282
aF-0.05087719298245614
aF-0.05143191116306254
aF-0.05023364485981308
aF-0.05195563339171045
aF-0.052508751458576426
aF-0.05131195335276968
aF-0.05011655011655012
aF-0.050669772859638904
aF-0.051222351571594875
aF-0.051774287376381616
aF-0.05232558139534884
aF-0.05113306217315514
aF-0.04994192799070848
aF-0.04875217643644805
aF-0.04756380510440835
aF-0.04811594202898551
aF-0.04692931633835458
aF-0.04748118123914302
aF-0.048032407407407406
aF-0.048582995951417005
aF-0.049132947976878616
aF-0.047949162333911034
aF-0.04676674364896074
aF-0.04731679169070975
aF-0.04786620530565167
aF-0.0484149855907781
aF-0.05011520737327189
aF-0.050662061024755324
aF-0.051208285385500575
aF-0.051753881541115584
aF-0.05057471264367816
aF-0.04939689833429064
aF-0.04994259471871412
aF-0.05048766494549627
aF-0.04931192660550459
aF-0.048137535816618914
aF-0.04868270332187858
aF-0.04922724670864339
aF-0.04977116704805492
aF-0.04859919954259577
aF-0.04742857142857143
aF-0.047972587093089665
aF-0.04680365296803653
aF-0.047347404449515115
aF-0.04789053591790194
aF-0.046723646723646726
aF-0.04726651480637813
aF-0.04610130904951622
aF-0.04664391353811149
aF-0.04718590108015918
aF-0.04772727272727273
aF-0.04656445201590006
aF-0.047105561861521
aF-0.0476460578559274
aF-0.046485260770975055
aF-0.04702549575070822
aF-0.045866364665911666
aF-0.04470854555744199
aF-0.04355203619909502
aF-0.04409270774448841
aF-0.04463276836158192
aF-0.04517221908526256
aF-0.045711060948081264
aF-0.046249294980259446
aF-0.04509582863585118
aF-0.04563380281690141
aF-0.04617117117117117
aF-0.04501969611705121
aF-0.046681664791901015
aF-0.047217537942664416
aF-0.046067415730337076
aF-0.04660303200449186
aF-0.04713804713804714
aF-0.045989904655075714
aF-0.0476457399103139
aF-0.04649859943977591
aF-0.04703247480403135
aF-0.04588696138780078
aF-0.046420581655480984
aF-0.046953605366126326
aF-0.04748603351955307
aF-0.0480178671133445
aF-0.046875
aF-0.047406581148912434
aF-0.04626532887402453
aF-0.0467966573816156
aF-0.04844097995545657
aF-0.05008347245409015
aF-0.05061179087875417
aF-0.05113952195664258
aF-0.05
aF-0.05052748473070516
aF-0.049389567147613764
aF-0.04991680532445923
aF-0.05044345898004435
aF-0.05096952908587258
aF-0.05149501661129568
aF-0.05201992252351965
aF-0.05254424778761062
aF-0.05306799336650083
aF-0.051933701657458566
aF-0.05245720596355605
aF-0.052980132450331126
aF-0.05460562603419746
aF-0.053472987872105845
aF-0.05509641873278237
aF-0.05561674008810573
aF-0.05613648871766648
aF-0.05665566556655666
aF-0.057174271577789995
aF-0.057692307692307696
aF-0.05656232839099396
aF-0.05543358946212953
aF-0.055951727921009324
aF-0.05646929824561404
aF-0.055342465753424656
aF-0.05421686746987952
aF-0.05473453749315818
aF-0.05525164113785558
aF-0.0541279387643521
aF-0.053005464480874315
aF-0.05352266521026761
aF-0.05403930131004367
aF-0.05291871249318058
aF-0.05343511450381679
aF-0.05395095367847411
aF-0.054466230936819175
aF-0.053347849755035384
aF-0.05223068552774755
aF-0.0511147362697118
aF-0.05
aF-0.050516023900054316
aF-0.0494028230184582
aF-0.04829083016820401
aF-0.04880694143167028
aF-0.04932249322493225
aF-0.04983748645720477
aF-0.050351922035733625
aF-0.050865800865800864
aF-0.051379123850730124
aF-0.05189189189189189
aF-0.05240410588870881
aF-0.05129589632829374
aF-0.05018888289260658
aF-0.05070118662351672
aF-0.04959568733153639
aF-0.04849137931034483
aF-0.04900376952073236
aF-0.04790096878363832
aF-0.04841312533620226
aF-0.0489247311827957
aF-0.04782375067168189
aF-0.04833512352309345
aF-0.04723564143853999
aF-0.046137339055793994
aF-0.04504021447721179
aF-0.04555198285101822
aF-0.044456347080878415
aF-0.044967880085653104
aF-0.0454788657035848
aF-0.04438502673796792
aF-0.04489577765900588
aF-0.045405982905982904
aF-0.04591564335290977
aF-0.046424759871931696
aF-0.046933333333333334
aF-0.04584221748400853
aF-0.04635055940330314
aF-0.045260915867944625
aF-0.045769026077700906
aF-0.04627659574468085
aF-0.04678362573099415
aF-0.04729011689691817
aF-0.04779607010090282
aF-0.048301486199575375
aF-0.04880636604774536
aF-0.04772004241781548
aF-0.04663487016428193
aF-0.047139830508474576
aF-0.04605611434621493
aF-0.04497354497354497
aF-0.04547858276044421
aF-0.0459830866807611
aF-0.04648705758055996
aF-0.0454065469904963
aF-0.04432717678100264
aF-0.044831223628691984
aF-0.043753294675803904
aF-0.044257112750263436
aF-0.045813586097946286
aF-0.04473684210526316
aF-0.0436612309310889
aF-0.04258675078864353
aF-0.04308985811875985
aF-0.04201680672268908
aF-0.04094488188976378
aF-0.03987408184679958
aF-0.040377556371263765
aF-0.040880503144654086
aF-0.04138292299633316
aF-0.041884816753926704
aF-0.04081632653061224
aF-0.0397489539748954
aF-0.040250914793518035
aF-0.03918495297805643
aF-0.03968668407310705
aF-0.04018789144050104
aF-0.0406885758998435
aF-0.03962460896767466
aF-0.040125065138092754
aF-0.040625
aF-0.04112441436751692
aF-0.040062434963579606
aF-0.0405616224648986
aF-0.04106029106029106
aF-0.04155844155844156
aF-0.04205607476635514
aF-0.0425531914893617
aF-0.04304979253112033
aF-0.04354587869362364
aF-0.04404145077720207
aF-0.04298291040911445
aF-0.04192546583850932
aF-0.04242110708742887
aF-0.04395036194415719
aF-0.04289405684754522
aF-0.04183884297520661
aF-0.042333505420753745
aF-0.04282765737874097
aF-0.04332129963898917
aF-0.04381443298969072
aF-0.04276146316331788
aF-0.04170957775489186
aF-0.040658775090066906
aF-0.0411522633744856
aF-0.0416452442159383
aF-0.040596094552929084
aF-0.04108885464817668
aF-0.04158110882956879
aF-0.04207285787583376
aF-0.04256410256410256
aF-0.043054843669912864
aF-0.043545081967213115
aF-0.04249871991807476
aF-0.041453428863868984
aF-0.04194373401534527
aF-0.04243353783231084
aF-0.04292284108329075
aF-0.04341164453524004
aF-0.04389994895354773
aF-0.044387755102040814
aF-0.04487506374298827
aF-0.04383282364933741
aF-0.04431991849210392
aF-0.043279022403258656
aF-0.042239185750636135
aF-0.04374364191251272
aF-0.042704626334519574
aF-0.043191056910569105
aF-0.04367699339766379
aF-0.04416243654822335
aF-0.044647387113140535
aF-0.04513184584178499
aF-0.0456158134820071
aF-0.044579533941236066
aF-0.045063291139240506
aF-0.0465587044534413
aF-0.04704097116843703
aF-0.047522750252780584
aF-0.048004042445679636
aF-0.04696969696969697
aF-0.045936395759717315
aF-0.04641775983854692
aF-0.0453857791225416
aF-0.04586693548387097
aF-0.04634760705289673
aF-0.04682779456193353
aF-0.04730749874182184
aF-0.04627766599597585
aF-0.04675716440422323
aF-0.0457286432160804
aF-0.047212456052235056
aF-0.04618473895582329
aF-0.04666332162568992
aF-0.04714142427281846
aF-0.04611528822055138
aF-0.04659318637274549
aF-0.04556835252879319
aF-0.04454454454454455
aF-0.04602301150575288
aF-0.0475
aF-0.047976011994003
aF-0.04695304695304695
aF-0.04593110334498253
aF-0.04491017964071856
aF-0.04389027431421447
aF-0.04436689930209372
aF-0.043348281016442454
aF-0.043824701195219126
aF-0.04529616724738676
aF-0.044278606965174126
aF-0.043262058677274985
aF-0.0437375745526839
aF-0.044212617983109784
aF-0.04568023833167825
aF-0.046153846153846156
aF-0.04662698412698413
aF-0.04709965294992563
aF-0.046085232903865216
aF-0.04655770183259039
aF-0.04702970297029703
aF-0.0475012370113805
aF-0.04797230464886251
aF-0.04695996045477014
aF-0.04743083003952569
aF-0.046419753086419754
aF-0.046890424481737414
aF-0.048347311297483965
aF-0.04881656804733728
aF-0.04780680137999014
aF-0.04827586206896552
aF-0.047267355982274745
aF-0.04625984251968504
aF-0.04525332021642892
aF-0.04424778761061947
aF-0.04471744471744472
aF-0.04518664047151277
aF-0.045655375552282766
aF-0.04465161923454367
aF-0.04512015693967631
aF-0.04411764705882353
aF-0.04311611954924057
aF-0.0435847208619001
aF-0.04405286343612335
aF-0.043052837573385516
aF-0.042053789731051346
aF-0.04105571847507331
aF-0.04152418172936004
aF-0.04052734375
aF-0.040995607613469986
aF-0.041463414634146344
aF-0.04193076548025353
aF-0.04239766081871345
aF-0.04140282513395031
aF-0.04186952288218111
aF-0.042335766423357665
aF-0.042801556420233464
aF-0.04326689353427322
aF-0.04227405247813411
aF-0.0412821758135017
aF-0.04174757281553398
aF-0.042212518195050945
aF-0.04267701260911736
aF-0.043141056713523994
aF-0.0436046511627907
aF-0.04261501210653753
aF-0.041626331074540175
aF-0.0420899854862119
aF-0.0425531914893617
aF-0.04156597390043499
aF-0.042028985507246375
aF-0.04345726702076291
aF-0.04391891891891892
aF-0.04438012542209358
aF-0.044840887174541946
aF-0.04530120481927711
aF-0.04431599229287091
aF-0.043331728454501686
aF-0.04379210779595765
aF-0.04280904280904281
aF-0.04326923076923077
aF-0.0422873618452667
aF-0.042747358309317966
aF-0.04320691310609698
aF-0.04366602687140115
aF-0.04268585131894485
aF-0.04314477468839885
aF-0.043603258265452804
aF-0.044061302681992334
aF-0.0430828147438966
aF-0.04354066985645933
aF-0.04256336681013869
aF-0.043021032504780114
aF-0.042044911610129
aF-0.04250238777459408
aF-0.04152744630071599
aF-0.040553435114503815
aF-0.04101096804959466
aF-0.041468064823641564
aF-0.04192472606002858
aF-0.04238095238095238
aF-0.042836744407425034
aF-0.04186489058039962
aF-0.04232049453162149
aF-0.04277566539923954
aF-0.04180522565320665
aF-0.04083570750237417
aF-0.03986710963455149
aF-0.03889943074003795
aF-0.03793266951161688
aF-0.03696682464454976
aF-0.03600189483657035
aF-0.036458333333333336
aF-0.036914339801230475
aF-0.03736991485335856
aF-0.037825059101654845
aF-0.03827977315689981
aF-0.03731695795937648
aF-0.03777148253068933
aF-0.038225578102878716
aF-0.037264150943396225
aF-0.03771805752003772
aF-0.03817153628652215
aF-0.037211493170042395
aF-0.03766478342749529
aF-0.03670588235294118
aF-0.03574788334901223
aF-0.034790785143394454
aF-0.03524436090225564
aF-0.035697510568341945
aF-0.03615023474178404
aF-0.035194744251525106
aF-0.03424015009380863
aF-0.034692920768870136
aF-0.035145267104029994
aF-0.034192037470725994
aF-0.03464419475655431
aF-0.03369209171736079
aF-0.034144059869036486
aF-0.03319308087891538
aF-0.03364485981308411
aF-0.03269500233535731
aF-0.031746031746031744
aF-0.032197853476434904
aF-0.03264925373134328
aF-0.0331002331002331
aF-0.033550792171481825
aF-0.03400093153237075
aF-0.03445065176908752
aF-0.03489995346672871
aF-0.035348837209302326
aF-0.034402603440260346
aF-0.03485130111524164
aF-0.03529958197863446
aF-0.03574744661095636
aF-0.03480278422273782
aF-0.036178107606679034
aF-0.03662494204914233
aF-0.03707136237256719
aF-0.03751736915238536
aF-0.03796296296296296
aF-0.03933364183248496
aF-0.039777983348751156
aF-0.04022191400832178
aF-0.04066543438077634
aF-0.039722863741339494
aF-0.04016620498614958
aF-0.04060913705583756
aF-0.041051660516605165
aF-0.040110650069156296
aF-0.04055299539170507
aF-0.04099493321050207
aF-0.04143646408839779
aF-0.04049700874367234
aF-0.04093836246550138
aF-0.041379310344827586
aF-0.04181985294117647
aF-0.042259990813045475
aF-0.04269972451790634
aF-0.043139054612207434
aF-0.04357798165137615
aF-0.04401650618982118
aF-0.044454628780934924
aF-0.04351809436555199
aF-0.04487179487179487
aF-0.04622425629290618
aF-0.04666056724611162
aF-0.04709647919524463
aF-0.04616087751371115
aF-0.04659661946094107
aF-0.047031963470319633
aF-0.04746691008671839
aF-0.047901459854014596
aF-0.04833561331509348
aF-0.04740200546946217
aF-0.04783599088838269
aF-0.0482695810564663
aF-0.0487027765134274
aF-0.04913557779799818
aF-0.0482037289677126
aF-0.04863636363636364
aF-0.04906860517946388
aF-0.049500454132606724
aF-0.04993191103041307
aF-0.04900181488203267
aF-0.048072562358276644
aF-0.048504079782411606
aF-0.047575894879927506
aF-0.04664855072463768
aF-0.047080126754187414
aF-0.046153846153846156
aF-0.045228403437358664
aF-0.04430379746835443
aF-0.0447356529597831
aF-0.043812104787714544
aF-0.04288939051918736
aF-0.04332129963898917
aF-0.043752819124943616
aF-0.04418394950405771
aF-0.04551599819738621
aF-0.04594594594594595
aF-0.045024763619991
aF-0.04635463546354635
aF-0.04678362573099415
aF-0.045863309352517985
aF-0.0449438202247191
aF-0.0440251572327044
aF-0.04445442299057027
aF-0.04488330341113106
aF-0.04531179901301032
aF-0.04439461883408072
aF-0.04571940833706858
aF-0.044802867383512544
aF-0.0438871473354232
aF-0.044315129811996416
aF-0.043400447427293064
aF-0.042486583184257604
aF-0.041573535985695124
aF-0.04066130473637176
aF-0.04198302813756141
aF-0.04241071428571429
aF-0.0428380187416332
aF-0.043264942016057094
aF-0.04235399019170753
aF-0.0427807486631016
aF-0.04320712694877506
aF-0.04229741763134461
aF-0.042723631508678236
aF-0.04403914590747331
aF-0.044464206313917294
aF-0.04488888888888889
aF-0.04531319413593958
aF-0.04573712255772647
aF-0.044829116733244564
aF-0.04525288376220053
aF-0.04567627494456763
aF-0.04609929078014184
aF-0.04652193176783341
aF-0.046944198405668734
aF-0.04736609119079239
aF-0.047787610619469026
aF-0.04820875718708536
aF-0.04862953138815208
aF-0.04904993371630579
aF-0.04946996466431095
aF-0.04988962472406181
aF-0.05030891438658429
aF-0.049404499338332596
aF-0.04982363315696649
aF-0.0502423975319524
aF-0.04933920704845815
aF-0.04975781594011449
aF-0.05017605633802817
aF-0.050593928728552576
aF-0.04969217238346526
aF-0.04879120879120879
aF-0.0492091388400703
aF-0.04962670180061485
aF-0.05004389815627744
aF-0.050460728389644584
aF-0.05087719298245614
aF-0.05129329241560719
aF-0.051709027169149865
aF-0.052124397722295226
aF-0.05122591943957969
aF-0.05032822757111598
aF-0.049431321084864394
aF-0.04984696108439003
aF-0.05026223776223776
aF-0.05067715159458279
aF-0.04978165938864629
aF-0.0501964207769533
aF-0.04930191972076789
aF-0.04971652856519843
aF-0.04882301656495205
aF-0.04923747276688453
aF-0.04965156794425087
aF-0.05093600348280366
aF-0.05004351610095736
aF-0.050456720313179645
aF-0.049565217391304345
aF-0.048674489352455455
aF-0.04908774978279757
aF-0.04819800260529744
aF-0.047309027777777776
aF-0.04772234273318872
aF-0.046834345186470075
aF-0.047247507585609014
aF-0.047660311958405546
aF-0.04807275877003032
aF-0.047186147186147186
aF-0.04759844223279965
aF-0.04801038062283737
aF-0.04712494595763078
aF-0.04624027657735523
aF-0.04665226781857451
aF-0.045768566493955096
aF-0.04618040569702201
aF-0.04659188955996549
aF-0.04570935748167314
aF-0.046120689655172416
aF-0.046531667384747954
aF-0.04694229112833764
aF-0.04735256134309083
aF-0.047762478485370054
aF-0.04688172043010753
aF-0.04729148753224419
aF-0.047700902449505804
aF-0.048109965635738834
aF-0.048518677544010305
aF-0.04763948497854077
aF-0.04804804804804805
aF-0.04716981132075472
aF-0.048435490784397774
aF-0.04884318766066838
aF-0.04925053533190578
aF-0.04965753424657534
aF-0.05006418485237484
aF-0.0504704875962361
aF-0.05087644292432664
aF-0.05
aF-0.05040580948312687
aF-0.05081127241673783
aF-0.05121638924455826
aF-0.05162116040955631
aF-0.05202558635394456
aF-0.052429667519181586
aF-0.052833404345973584
aF-0.05323679727427598
aF-0.05363984674329502
aF-0.05276595744680851
aF-0.05316886431305827
aF-0.05229591836734694
aF-0.051423714407139824
aF-0.051826677994902294
aF-0.05222929936305733
aF-0.05263157894736842
aF-0.05303351718285957
aF-0.05216284987277354
aF-0.05129292072912251
aF-0.051694915254237285
aF-0.05082592121982211
aF-0.05122777307366638
aF-0.05162928480744816
aF-0.05203045685279188
aF-0.05116279069767442
aF-0.05156382079459002
aF-0.051964512040557666
aF-0.05109797297297297
aF-0.050232165470662726
aF-0.05063291139240506
aF-0.04976803036693378
aF-0.050168634064080946
aF-0.05056890012642225
aF-0.04970513900589722
aF-0.050105263157894736
aF-0.050505050505050504
aF-0.05174589819099706
aF-0.05214465937762826
aF-0.052543085329970575
aF-0.052941176470588235
aF-0.05333893322133557
aF-0.05373635600335852
aF-0.054133445237096095
aF-0.05327181208053691
aF-0.053668763102725364
aF-0.054065381391450125
aF-0.05320485965647256
aF-0.05360134003350084
aF-0.053997488488907494
aF-0.05439330543933055
aF-0.054788791300711
aF-0.053929765886287624
aF-0.05432511491851233
aF-0.054720133667502086
aF-0.05511482254697286
aF-0.05550918196994992
aF-0.05465164789319983
aF-0.05504587155963303
aF-0.05543976656940392
aF-0.05458333333333333
aF-0.053727613494377345
aF-0.05412156536219817
aF-0.05326674989596338
aF-0.05366056572379368
aF-0.05280665280665281
aF-0.05320033250207814
aF-0.052347320315745745
aF-0.05357142857142857
aF-0.052718970527189705
aF-0.053112033195020746
aF-0.053504769805060144
aF-0.0538971807628524
aF-0.05511811023622047
aF-0.05550952775476388
aF-0.0546583850931677
aF-0.05504966887417218
aF-0.05544062887877534
aF-0.05583126550868486
aF-0.054981397271599834
aF-0.05537190082644628
aF-0.05452292441140025
aF-0.05491329479768786
aF-0.0540652084193149
aF-0.054455445544554455
aF-0.05484536082474227
aF-0.05399835119538335
aF-0.054388133498145856
aF-0.054777594728171335
aF-0.05599011939069576
aF-0.056378600823045265
aF-0.05553270259152612
aF-0.0546875
aF-0.05507603781339909
aF-0.055464256368118324
aF-0.05462012320328542
aF-0.05377668308702791
aF-0.05416495691423882
aF-0.05332239540607055
aF-0.05248052480524805
aF-0.052868852459016395
aF-0.05325686194182712
aF-0.05241605241605242
aF-0.05280392959476054
aF-0.05319148936170213
aF-0.052351738241308794
aF-0.0527391659852821
aF-0.05312627707396812
aF-0.053513071895424834
aF-0.05267456104532462
aF-0.05183673469387755
aF-0.05222358221134231
aF-0.05261011419249592
aF-0.05299633102323685
aF-0.05215973920130399
aF-0.05254582484725051
aF-0.05171009771986971
aF-0.052096052096052094
aF-0.052481692432872255
aF-0.052867019113460756
aF-0.05203252032520325
aF-0.052417716375457134
aF-0.051584077985377744
aF-0.05075111652456354
aF-0.05113636363636364
aF-0.05152129817444219
aF-0.05190592051905921
aF-0.052290231049858124
aF-0.0526742301458671
aF-0.0530579181855002
aF-0.05344129554655871
aF-0.052610279239174426
aF-0.05299352750809062
aF-0.05216336433481601
aF-0.05254648342764753
aF-0.05292929292929293
aF-0.05411954765751212
aF-0.05329027048849415
aF-0.052461662631154156
aF-0.052843888664784185
aF-0.0532258064516129
aF-0.053607416364369206
aF-0.05278001611603546
aF-0.05195328231977447
aF-0.05233494363929147
aF-0.05150905432595573
aF-0.051890587288817375
aF-0.051065540812223566
aF-0.05144694533762058
aF-0.05182804339092005
aF-0.05220883534136546
aF-0.052589321557607385
aF-0.05176565008025682
aF-0.052146008824709184
aF-0.05252606255012029
aF-0.051703406813627256
aF-0.052083333333333336
aF-0.05246295554665599
aF-0.053642914331465175
aF-0.05282112845138055
aF-0.052
aF-0.05237904838064774
aF-0.05275779376498801
aF-0.0519376747902517
aF-0.051118210862619806
aF-0.05149700598802395
aF-0.052673583399840386
aF-0.05305145592341444
aF-0.05223285486443381
aF-0.05141490633718613
aF-0.05179282868525897
aF-0.052170450019912384
aF-0.052547770700636945
aF-0.05173099880620772
aF-0.05290373906125696
aF-0.05328031809145129
aF-0.053656597774244835
aF-0.052840683353198255
aF-0.052025416997617153
aF-0.051210797935688765
aF-0.051587301587301584
aF-0.05196350654502182
aF-0.05114988104678826
aF-0.05033690051525961
aF-0.05071315372424723
aF-0.049900990099009904
aF-0.04908946951702296
aF-0.049465769687376336
aF-0.04865506329113924
aF-0.04784499802293397
aF-0.04703557312252964
aF-0.047412090082971155
aF-0.04660347551342812
aF-0.04579549940781682
aF-0.04498816101026046
aF-0.045364891518737675
aF-0.04574132492113565
aF-0.04611746156878203
aF-0.046493301812450746
aF-0.046868846002363136
aF-0.047244094488188976
aF-0.046438410074773714
aF-0.045633359559402044
aF-0.04482894219425875
aF-0.0440251572327044
aF-0.044400785854616896
aF-0.04477611940298507
aF-0.04397330192383196
aF-0.04434850863422292
aF-0.04354648881914476
aF-0.04392156862745098
aF-0.04429635437083497
aF-0.04349529780564263
aF-0.043869956913435176
aF-0.044244322631166795
aF-0.04461839530332681
aF-0.04381846635367762
aF-0.04419241298396558
aF-0.044566067240031274
aF-0.043767096522078934
aF-0.044921875
aF-0.04529480671612651
aF-0.04566744730679157
aF-0.04486929379633242
aF-0.0452418096723869
aF-0.044444444444444446
aF-0.04481683554169914
aF-0.04518893650175302
aF-0.0455607476635514
aF-0.045932269365511876
aF-0.046303501945525294
aF-0.047452353169972775
aF-0.04782270606531882
aF-0.04702681694520015
aF-0.048174048174048176
aF-0.04932038834951456
aF-0.049689440993788817
aF-0.050058207217694994
aF-0.0504266873545384
aF-0.04963164017060876
aF-0.05
aF-0.05036807438977141
aF-0.05073586367157242
aF-0.05110336817653891
aF-0.05224458204334365
aF-0.05145067698259188
aF-0.05065738592420727
aF-0.04986470815616544
aF-0.05023183925811438
aF-0.04943993820007725
aF-0.04980694980694981
aF-0.05017367811655731
aF-0.050540123456790126
aF-0.05090628615503278
aF-0.05127216653816499
aF-0.05163776493256262
aF-0.05084745762711865
aF-0.05005775895263766
aF-0.050423402617398
aF-0.050788764909580605
aF-0.05
aF-0.050365244136870435
aF-0.05073020753266718
aF-0.049942374183634265
aF-0.04915514592933948
aF-0.04952015355086373
aF-0.04873369148119724
aF-0.04909858074415036
aF-0.04946319018404908
aF-0.04982752012265236
aF-0.050191570881226055
aF-0.050555342780543855
aF-0.050918836140888206
aF-0.050133945656333716
aF-0.04934965570007651
aF-0.0497131931166348
aF-0.05007645259938838
aF-0.05043943446694689
aF-0.05080213903743316
aF-0.051164566628484155
aF-0.05152671755725191
aF-0.05188859214040443
aF-0.05110602593440122
aF-0.050324056423942054
aF-0.04954268292682927
aF-0.0499047619047619
aF-0.04912414318354912
aF-0.048344118766653975
aF-0.0487062404870624
aF-0.04906808672499049
aF-0.04828897338403042
aF-0.04865070315469403
aF-0.04901215805471125
aF-0.04823395366502089
aF-0.04859529233105543
aF-0.048956356736242886
aF-0.04931714719271624
aF-0.04854000758437618
aF-0.04890068233510235
aF-0.04812428950359985
aF-0.048484848484848485
aF-0.048845134418780765
aF-0.04920514761544285
aF-0.04842981460461597
aF-0.04878971255673222
aF-0.04801512287334594
aF-0.04837490551776266
aF-0.04760105780128447
aF-0.04682779456193353
aF-0.04718761796904492
aF-0.047547169811320754
aF-0.04790645039607695
aF-0.048265460030165915
aF-0.047493403693931395
aF-0.04785229841748304
aF-0.04821092278719397
aF-0.048569277108433735
aF-0.048927361686112156
aF-0.04928517682468021
aF-0.04851447912749154
aF-0.04962406015037594
aF-0.04885381435550545
aF-0.04921111945905334
aF-0.04956815621479534
aF-0.049924924924924924
aF-0.05103189493433396
aF-0.05026256564141035
aF-0.05061867266591676
aF-0.050974512743628186
aF-0.0502060696890221
aF-0.05056179775280899
aF-0.05091725945338824
aF-0.05127245508982036
aF-0.051627384960718295
aF-0.05272999252056844
aF-0.051962616822429905
aF-0.052316890881913304
aF-0.05267090026148674
aF-0.05302464525765497
aF-0.05337812616648003
aF-0.05373134328358209
aF-0.054084296904140246
aF-0.055182699478001494
aF-0.05553484904957137
aF-0.05588673621460507
aF-0.05623836126629423
aF-0.05547282204020849
aF-0.05656866393747674
aF-0.05580357142857143
aF-0.05689847526961696
aF-0.05724907063197026
aF-0.057599405425492384
aF-0.05794947994056464
aF-0.058299294467137025
aF-0.05864884929472903
aF-0.05788497217068646
aF-0.05823442136498516
aF-0.05747126436781609
aF-0.05782060785767235
aF-0.058169692478695814
aF-0.05851851851851852
aF-0.05886708626434654
aF-0.058105107327905255
aF-0.058453570107288196
aF-0.058801775147928996
aF-0.059149722735674676
aF-0.058388765705838876
aF-0.05873660879202069
aF-0.05982274741506647
aF-0.06016980435585087
aF-0.06051660516605166
aF-0.06086315012910365
aF-0.0612094395280236
aF-0.06155547364541098
aF-0.06190125276344879
aF-0.062246777163904234
aF-0.06148748159057437
aF-0.06072874493927125
aF-0.06181015452538632
aF-0.06215520411916146
aF-0.0625
aF-0.06284454244762955
aF-0.06318883174136664
aF-0.06243114212265883
aF-0.06277533039647577
aF-0.06201834862385321
aF-0.06236243580337491
aF-0.0627062706270627
aF-0.06304985337243402
aF-0.06339318431659949
aF-0.06373626373626373
aF-0.06407909190772611
aF-0.06332357247437774
aF-0.06366630076838639
aF-0.06291148500365765
aF-0.06325411334552103
aF-0.06359649122807018
aF-0.0639386189258312
aF-0.06428049671292914
aF-0.06462212486308871
aF-0.06496350364963503
aF-0.06530463334549434
aF-0.06455142231947483
aF-0.06489245351804593
aF-0.0641399416909621
aF-0.06448087431693988
aF-0.06482155863073562
aF-0.06589006188569349
aF-0.06513828238719069
aF-0.06438704983630411
aF-0.06472727272727273
aF-0.06506724827335514
aF-0.06613372093023256
aF-0.06647293861242282
aF-0.06753812636165578
aF-0.06787658802177858
aF-0.06821480406386067
aF-0.06855277475516866
aF-0.06961566352429296
aF-0.06995288147879666
aF-0.06920289855072463
aF-0.06954002173125678
aF-0.06987690079652426
aF-0.07021353601158162
aF-0.0694645441389291
aF-0.06871609403254973
aF-0.0690527838033261
aF-0.06938923021322732
aF-0.06972543352601156
aF-0.07006139400505598
aF-0.0703971119133574
aF-0.06964994586791771
aF-0.06998556998556998
aF-0.0703209520375045
aF-0.0695746214852199
aF-0.0699099099099099
aF-0.07024495677233429
aF-0.07057976233345337
aF-0.0709143268538517
aF-0.07016912558474271
aF-0.06942446043165468
aF-0.06868033081625315
aF-0.06901509705248023
aF-0.06827164929931728
aF-0.06860632183908046
aF-0.06786355475763016
aF-0.0681981335247667
aF-0.06853247219232149
aF-0.06886657101865136
aF-0.06812477590534241
aF-0.06738351254480286
aF-0.06771766391974203
aF-0.06697707736389685
aF-0.06731113498030791
aF-0.06764495347172512
aF-0.06797853309481217
aF-0.06723891273247497
aF-0.06828745084018592
aF-0.0675482487491065
aF-0.06788138620936049
aF-0.06714285714285714
aF-0.06747590146376294
aF-0.06780870806566738
aF-0.06814127720299679
aF-0.06740370898716119
aF-0.06666666666666667
aF-0.06699928724162509
aF-0.06733167082294264
aF-0.06766381766381767
aF-0.06799572801708793
aF-0.06725978647686832
aF-0.06759160441124155
aF-0.06792318634423898
aF-0.06825453252755066
aF-0.06858564321250889
aF-0.06785079928952042
aF-0.06818181818181818
aF-0.06744763933262336
aF-0.06777856635911994
aF-0.06810925860234125
aF-0.0673758865248227
aF-0.06770648706132577
aF-0.06803685329553508
aF-0.06730428622033298
aF-0.06763456090651558
aF-0.06690265486725663
aF-0.06723283793347487
aF-0.06756278740714539
aF-0.06789250353606789
aF-0.06822198656769177
aF-0.0685512367491166
aF-0.0688802543270929
aF-0.0692090395480226
aF-0.06847864454641722
aF-0.06774876499647142
aF-0.06807760141093475
aF-0.0684062059238364
aF-0.0676771237222418
aF-0.06694855532064835
aF-0.06727721028531172
aF-0.06654929577464788
aF-0.06687785990848293
aF-0.06615059817030261
aF-0.06647907140344707
aF-0.06680731364275667
aF-0.0671353251318102
aF-0.06746310611384398
aF-0.06673691605198455
aF-0.06601123595505617
aF-0.06528606528606529
aF-0.06456140350877193
aF-0.06488951245177131
aF-0.06521739130434782
aF-0.06554504030844725
aF-0.06587245970567625
aF-0.06619964973730298
aF-0.0665266106442577
aF-0.06685334266713336
aF-0.06717984604618614
aF-0.0664568030779993
aF-0.06678321678321679
aF-0.06606081789584062
aF-0.06638714185883997
aF-0.06566538595878449
aF-0.06599162011173185
aF-0.06527050610820244
aF-0.06524773203070482
aF-0.06557377049180328
aF-0.06589958158995816
aF-0.06622516556291391
aF-0.06655052264808363
aF-0.06583072100313479
aF-0.06615598885793872
aF-0.06648103028193526
aF-0.06680584551148225
aF-0.06608695652173913
aF-0.06641168289290682
aF-0.06569343065693431
aF-0.0660180681028492
aF-0.06634248002778742
aF-0.065625
aF-0.06594932315168345
aF-0.0662734212352533
aF-0.06555671175858481
aF-0.06657420249653259
aF-0.06689774696707106
aF-0.06618156618156618
aF-0.06546588153792865
aF-0.06578947368421052
aF-0.0661128418137764
aF-0.06643598615916955
aF-0.06572120373573158
aF-0.06673582295988935
aF-0.0670584168683028
aF-0.0663441603317208
aF-0.06666666666666667
aF-0.06698895027624309
aF-0.06731101139109423
aF-0.06763285024154589
aF-0.06691962745774405
aF-0.06724137931034482
aF-0.06652878317821441
aF-0.06685044796691937
aF-0.066138477437134
aF-0.06646005509641874
aF-0.0657487091222031
aF-0.06503785271851342
aF-0.06535947712418301
aF-0.0656808803301238
aF-0.06600206256445514
aF-0.06632302405498282
aF-0.06561319134318104
aF-0.06490384615384616
aF-0.06591143151390319
aF-0.06623198352779684
aF-0.06655231560891939
aF-0.0668724279835391
aF-0.06719232087761398
aF-0.06648389307745031
aF-0.065775950668037
aF-0.06609589041095891
aF-0.06538856555973982
aF-0.06570841889117043
aF-0.06602805336982552
aF-0.06634746922024624
aF-0.06564102564102564
aF-0.06596035543403965
aF-0.06696276050563717
aF-0.0662568306010929
aF-0.06657562307954934
aF-0.06689419795221843
aF-0.06721255544182873
aF-0.0665075034106412
aF-0.06682577565632458
aF-0.06714383094751193
aF-0.06643952299829642
aF-0.0667574931880109
aF-0.06707524685052775
aF-0.0673927842069435
aF-0.06668935011908812
aF-0.06598639455782312
aF-0.06630397823869433
aF-0.06662134602311352
aF-0.06591913013931362
aF-0.06623641304347826
aF-0.06553480475382004
aF-0.0658520027155465
aF-0.06515100101798439
aF-0.06546811397557666
aF-0.06578501186842997
aF-0.06610169491525424
aF-0.06641816333446289
aF-0.06673441734417344
aF-0.06705045716220792
aF-0.06736628300609343
aF-0.06666666666666667
aF-0.06698240866035182
aF-0.06729793709841055
aF-0.0676132521974307
aF-0.06691449814126393
aF-0.06621621621621622
aF-0.06653157716987504
aF-0.06684672518568535
aF-0.067161660479244
aF-0.06747638326585695
aF-0.06677908937605397
aF-0.06608226567768037
aF-0.06538591169531513
aF-0.06570080862533692
aF-0.06601549343213203
aF-0.06632996632996634
aF-0.06563446650959273
aF-0.06493943472409153
aF-0.06424487050117726
aF-0.0652320107599193
aF-0.06554621848739496
aF-0.06586021505376344
aF-0.06516627477326167
aF-0.06548018804566823
aF-0.06478684122188653
aF-0.06409395973154362
aF-0.06440791680644078
aF-0.06472166331321261
aF-0.06503519946362722
aF-0.0653485254691689
aF-0.06566164154103853
aF-0.0666443402545211
aF-0.06595246066287244
aF-0.06626506024096386
aF-0.06557377049180328
aF-0.06588628762541807
aF-0.06619859578736209
aF-0.06651069518716578
aF-0.06682258603407952
aF-0.06713426853707415
aF-0.0664440734557596
aF-0.06675567423230974
aF-0.06706706706706707
aF-0.06737825216811208
aF-0.06835611870623541
aF-0.06766666666666667
aF-0.06697767410863045
aF-0.06728847435043304
aF-0.0675990675990676
aF-0.06790945406125166
aF-0.06821963394342762
aF-0.06852960745176315
aF-0.06883937479215164
aF-0.06815159574468085
aF-0.06846128281821202
aF-0.06877076411960133
aF-0.06808369312520757
aF-0.06839309428950863
aF-0.06870229007633588
aF-0.06901128069011281
aF-0.06932006633499171
aF-0.06962864721485411
aF-0.06993702353331123
aF-0.07024519549370443
aF-0.07055316329910566
aF-0.07152317880794702
aF-0.07083747103608076
aF-0.07114493712772998
aF-0.07211379424412835
aF-0.07242063492063493
aF-0.07272727272727272
aF-0.07204230006609386
aF-0.07234886025768088
aF-0.0726552179656539
aF-0.07296137339055794
aF-0.07392739273927393
aF-0.07423292642692181
aF-0.07354881266490765
aF-0.07286515001648533
aF-0.07317073170731707
aF-0.07248764415156507
aF-0.07180500658761528
aF-0.07211063549555483
aF-0.07142857142857142
aF-0.07173412306679829
aF-0.07203947368421053
aF-0.07234462347911871
aF-0.07264957264957266
aF-0.07295432139336182
aF-0.07325886990801576
aF-0.0735632183908046
aF-0.07386736703873933
aF-0.07417131604857237
aF-0.0744750656167979
aF-0.07477861593965235
aF-0.0740983606557377
aF-0.07440183546378237
aF-0.07470511140235911
aF-0.0740255486406813
aF-0.07432874918140144
aF-0.07364975450081833
aF-0.07395287958115183
aF-0.07425580634609094
aF-0.07455853499018966
aF-0.07388035305655442
aF-0.07418300653594771
aF-0.07448546226723293
aF-0.07478772044415415
aF-0.07508978126020241
aF-0.07539164490861619
aF-0.07569331158238173
aF-0.07599478147423352
aF-0.07531790022823606
aF-0.07561929595827901
aF-0.07592049527533398
aF-0.0752442996742671
aF-0.0755454249430153
aF-0.07584635416666667
aF-0.07614708753660918
aF-0.07644762524398178
aF-0.07577235772357724
aF-0.07509752925877763
aF-0.07539811504712382
aF-0.07472384665367121
aF-0.07502435855797336
aF-0.07532467532467532
aF-0.07465108730931516
aF-0.07495133030499676
aF-0.07525137852740837
aF-0.07555123216601815
aF-0.07585089141004862
aF-0.07679844458846403
aF-0.07612568837058634
aF-0.07642487046632124
aF-0.07575267076723859
aF-0.0766990291262136
aF-0.07602717567130378
aF-0.07535575679172057
aF-0.07565470417070805
aF-0.07595345830639948
aF-0.07625201938610662
aF-0.07655038759689922
aF-0.07587988375847594
aF-0.07617817947062622
aF-0.0755082284607938
aF-0.07580645161290323
aF-0.07513705256368913
aF-0.07543520309477757
aF-0.07476635514018691
aF-0.07506443298969072
aF-0.07439613526570048
aF-0.0746941403734707
aF-0.07402639201802381
aF-0.07496782496782496
aF-0.07430041814088131
aF-0.07459807073954984
aF-0.0739312118289939
aF-0.07422879177377892
aF-0.07356247992290395
aF-0.0728965960179833
aF-0.07319422150882825
aF-0.07349165596919127
aF-0.0737888995829323
aF-0.07312379730596537
aF-0.07342096825905739
aF-0.07371794871794872
aF-0.07401473886574816
aF-0.07431133888532991
aF-0.07364713416586616
aF-0.07298335467349552
aF-0.07232
aF-0.0726167626359565
aF-0.0719539494723377
aF-0.0712915601023018
aF-0.07158836689038031
aF-0.07188498402555911
aF-0.07122325135739381
aF-0.07056194125159643
aF-0.07085860197893393
aF-0.07019783024888322
aF-0.07049441786283892
aF-0.07079081632653061
aF-0.07013069811922219
aF-0.06947100063734862
aF-0.06976744186046512
aF-0.07006369426751592
aF-0.07035975803884113
aF-0.07065563335455124
aF-0.07095132039452752
aF-0.07029262086513995
aF-0.07058823529411765
aF-0.0708836617927527
aF-0.07022561169367651
aF-0.07052096569250317
aF-0.0708161321054303
aF-0.07015873015873016
aF-0.07045382418279911
aF-0.070748730964467
aF-0.07009197589597209
aF-0.07038681039949271
aF-0.06973058637083994
aF-0.07002534854245882
aF-0.07031992397846057
aF-0.06966434452184928
aF-0.06900918012029122
aF-0.06930379746835443
aF-0.06959822840873141
aF-0.06989247311827956
aF-0.07018653177363263
aF-0.0695322376738306
aF-0.06982622432859399
aF-0.07012002526847758
aF-0.07041364066940323
aF-0.06976010101010101
aF-0.06910697380877248
aF-0.0694006309148265
aF-0.06969410280668559
aF-0.06998738965952081
aF-0.0709108099590293
aF-0.0702583490863264
aF-0.0705511811023622
aF-0.07084382871536524
aF-0.0711362920994649
aF-0.07142857142857142
aF-0.07172066687637622
aF-0.0710691823899371
aF-0.07041810751336058
aF-0.06976744186046512
aF-0.07005969211435753
aF-0.06940954773869347
aF-0.06970172684458399
aF-0.06999372253609541
aF-0.07091308440539693
aF-0.07026348808030113
aF-0.06961429915333961
aF-0.06990595611285266
aF-0.0701974302726418
aF-0.07048872180451128
aF-0.0707798308800501
aF-0.07107075767063244
aF-0.07136150234741784
aF-0.07165206508135169
aF-0.07194244604316546
aF-0.07223264540337711
aF-0.07252266333229133
aF-0.0728125
aF-0.07310215557638237
aF-0.07245471580262336
aF-0.07274430221667187
aF-0.07209737827715355
aF-0.07238689547581903
aF-0.07174048658764816
aF-0.07109448082319925
aF-0.07138403990024937
aF-0.07167341851043939
aF-0.07196261682242991
aF-0.07131734662099035
aF-0.07160647571606475
aF-0.0718954248366013
aF-0.07218419415059116
aF-0.07247278382581648
aF-0.07182835820895522
aF-0.07211687907988809
aF-0.07240522063393412
aF-0.07269338303821063
aF-0.07360248447204969
aF-0.07295870847562869
aF-0.07324643078833024
aF-0.0726031647533354
aF-0.07289081885856079
aF-0.0737984496124031
aF-0.0731556106633602
aF-0.0734428261543229
aF-0.07280049566294919
aF-0.07308764323319913
aF-0.07337461300309597
aF-0.07366140513772826
aF-0.07456683168316831
aF-0.07392514692236313
aF-0.07328385899814471
aF-0.07357032457496136
aF-0.0738566131025958
aF-0.0732159406858202
aF-0.07257566399011736
aF-0.07193578264896573
aF-0.07222222222222222
aF-0.07158284480098735
aF-0.07186921653300432
aF-0.07215541165587419
aF-0.07244143033292232
aF-0.07272727272727272
aF-0.07301293900184842
aF-0.07329842931937172
aF-0.07266009852216748
aF-0.07202216066481995
aF-0.07230769230769231
aF-0.07167025530605968
aF-0.07103321033210332
aF-0.071318782662158
aF-0.0716041794714198
aF-0.07188940092165899
aF-0.07125307125307126
aF-0.07153822536076143
aF-0.0718232044198895
aF-0.07118748082233814
aF-0.07147239263803681
aF-0.07083716651333946
aF-0.07020232985898221
aF-0.07110021452650934
aF-0.07138480392156862
aF-0.07166921898928025
aF-0.07256582976117575
aF-0.07284970921334558
aF-0.07313341493268054
aF-0.07341694707861732
aF-0.07370030581039755
aF-0.07306634056863344
aF-0.07243276283618581
aF-0.0717995722578674
aF-0.07208307880268784
aF-0.07236641221374046
aF-0.07173382173382173
aF-0.07110161733292646
aF-0.0713849908480781
aF-0.07166819152180542
aF-0.07195121951219512
aF-0.07223407497714111
aF-0.0725167580743449
aF-0.07279926896131587
aF-0.0730816077953715
aF-0.07336377473363774
aF-0.0736457699330493
aF-0.07392759355034986
aF-0.07420924574209246
aF-0.07449072666463971
aF-0.07386018237082066
aF-0.07414159829838955
aF-0.07351154313487242
aF-0.07379289401761312
aF-0.07407407407407407
aF-0.07344461305007587
aF-0.07281553398058252
aF-0.07309675462541705
aF-0.07337780473013948
aF-0.07365868444983328
aF-0.07303030303030303
aF-0.07331111784307785
aF-0.07359176256814053
aF-0.07387223735997578
aF-0.07415254237288135
aF-0.07443267776096824
aF-0.07471264367816093
aF-0.07559721802237677
aF-0.07496977025392987
aF-0.07524932003626474
aF-0.07462235649546828
aF-0.07490184234370281
aF-0.07427536231884058
aF-0.07455478418351946
aF-0.0748340374170187
aF-0.0751131221719457
aF-0.07448733413751508
aF-0.07386192342478143
aF-0.07323688969258589
aF-0.07261223260018078
aF-0.07198795180722892
aF-0.07226738934056007
aF-0.07254665863937387
aF-0.07282575985555222
aF-0.07370637785800241
aF-0.07308270676691729
aF-0.07336139506915214
aF-0.07273820258491133
aF-0.07211538461538461
aF-0.07239411234604987
aF-0.07267267267267268
aF-0.07295106574602221
aF-0.07322929171668667
aF-0.07260726072607261
aF-0.07288542291541691
aF-0.07376311844077961
aF-0.07314148681055156
aF-0.073419238837279
aF-0.07279808268424207
aF-0.07307577118897873
aF-0.07335329341317365
aF-0.07363064950613589
aF-0.0739078396169958
aF-0.07418486389470536
aF-0.07446172248803828
aF-0.07473841554559044
aF-0.07411835026897788
aF-0.07349865551239916
aF-0.07377538829151732
aF-0.07315616601970737
aF-0.07343283582089552
aF-0.07370934049537452
aF-0.07398568019093078
aF-0.07336713390993141
aF-0.0727489564698867
aF-0.07213114754098361
aF-0.07151370679380215
aF-0.0717902889484659
aF-0.07117331745086361
aF-0.070556713307532
aF-0.07083333333333333
aF-0.07021719726271942
aF-0.06960142772159429
aF-0.06987808504311627
aF-0.07015457788347206
aF-0.07043090638930163
aF-0.0707070707070707
aF-0.0700920700920701
aF-0.07096199524940618
aF-0.07034728406055209
aF-0.06973293768545995
aF-0.07060219519430436
aF-0.07087781731909845
aF-0.07115327601541654
aF-0.07142857142857142
aF-0.0717037037037037
aF-0.07109004739336493
aF-0.07047675451584247
aF-0.06986382474837181
aF-0.07013909440662917
aF-0.07041420118343195
aF-0.07068914522330672
aF-0.0709639266706091
aF-0.07123854566952409
aF-0.0715130023640662
aF-0.07178729689807976
aF-0.07206142941523921
aF-0.07144966046648951
aF-0.07172373081463991
aF-0.07111242254352317
aF-0.07138643067846608
aF-0.0707755824240637
aF-0.0710495283018868
aF-0.07132331270262304
aF-0.07071302298173247
aF-0.07098674521354933
aF-0.0712603062426384
aF-0.07153370621136297
aF-0.0709240729841083
aF-0.07031479847013827
aF-0.06970588235294117
aF-0.06997941781828874
aF-0.0702527924750147
aF-0.07052600646488393
aF-0.0699177438307873
aF-0.07019089574155653
aF-0.06958308866705813
aF-0.06985617845611976
aF-0.07012910798122066
aF-0.06952185391610442
aF-0.06979472140762463
aF-0.06918792143066549
aF-0.06946072684642439
aF-0.06885438031057721
aF-0.06912712360867018
aF-0.06852122986822841
aF-0.06879391100702575
aF-0.06906643254316652
aF-0.0684610883557636
aF-0.06785609827434923
aF-0.06812865497076023
aF-0.06752411575562701
aF-0.06779661016949153
aF-0.06719252118025124
aF-0.06746495327102804
aF-0.06773722627737226
aF-0.06800934033858727
aF-0.06828129559381384
aF-0.0676779463243874
aF-0.06794983960338291
aF-0.06822157434402332
aF-0.06761877003788982
aF-0.0678904428904429
aF-0.06816195747159919
aF-0.06843331391962726
aF-0.0678311499272198
aF-0.0681024447031432
aF-0.06837358161187082
aF-0.06864456079115765
aF-0.06804303576621111
aF-0.06744186046511629
aF-0.06771287416448707
aF-0.06856478791400349
aF-0.06796398489689225
aF-0.06736353077816493
aF-0.06676342525399129
aF-0.06703424260011608
aF-0.06788511749347259
aF-0.06815545243619489
aF-0.06842563061757032
aF-0.06869565217391305
aF-0.06809620399884092
aF-0.06836616454229433
aF-0.06921517520996236
aF-0.06948465547191662
aF-0.06888567293777134
aF-0.06828703703703703
aF-0.0685565519236332
aF-0.06882591093117409
aF-0.06909511419485401
aF-0.06849710982658959
aF-0.06876625252817105
aF-0.06903523974581167
aF-0.06988160554432572
aF-0.06928406466512702
aF-0.06868686868686869
aF-0.06895556837853434
aF-0.0698009806749351
aF-0.07006920415224914
aF-0.07033727298933411
aF-0.07060518731988473
aF-0.07087294727744166
aF-0.07027649769585254
aF-0.07112006910452058
aF-0.07138744962579159
aF-0.0716546762589928
aF-0.07192174913693901
aF-0.07132585562266322
aF-0.07159286946520989
aF-0.07185972980741592
aF-0.07126436781609195
aF-0.07153116920425165
aF-0.07179781734635267
aF-0.0720643123743899
aF-0.07233065442020666
aF-0.07173601147776183
aF-0.07200229489386116
aF-0.07226842558072842
aF-0.07253440366972477
aF-0.07280022929206076
aF-0.07220630372492837
aF-0.07247207103981668
aF-0.07187857961053837
aF-0.07214428857715431
aF-0.07240984544934173
aF-0.07181688125894134
aF-0.07122425629290619
aF-0.0714898484415213
aF-0.07089765580331618
aF-0.07030580165761646
aF-0.06971428571428571
aF-0.06998000571265353
aF-0.07024557395773844
aF-0.07051099057950329
aF-0.07077625570776255
aF-0.07018544935805991
aF-0.07045065601825443
aF-0.07071571143427431
aF-0.0709806157354618
aF-0.07124536905101168
aF-0.07150997150997151
aF-0.07177442324124181
aF-0.07203872437357631
aF-0.07287218901224025
aF-0.07313602731929425
aF-0.07339971550497866
aF-0.07423208191126279
aF-0.07449530850156383
aF-0.07475838544627629
aF-0.0741687979539642
aF-0.07443181818181818
aF-0.07469468900880431
aF-0.07495741056218058
aF-0.07436843599205223
aF-0.0746311010215664
aF-0.07404255319148936
aF-0.07345433919455474
aF-0.07371703997731784
aF-0.07312925170068027
aF-0.07339189572116747
aF-0.07365439093484419
aF-0.07306711979609176
aF-0.07332955832389582
aF-0.0735918482875743
aF-0.07385398981324279
aF-0.07326732673267326
aF-0.07268099547511313
aF-0.0720949957591179
aF-0.07150932730356134
aF-0.07177168691720825
aF-0.07203389830508475
aF-0.07229596159277041
aF-0.07171089779785432
aF-0.07112616426756986
aF-0.07195259593679458
aF-0.07221438645980253
aF-0.07163000564015792
aF-0.07104595432760079
aF-0.07046223224351747
aF-0.07072414764722457
aF-0.07098591549295774
aF-0.07040270346381301
aF-0.07066441441441441
aF-0.07092597804672109
aF-0.07118739448508722
aF-0.07144866385372714
aF-0.07170978627671541
aF-0.07197076187798707
aF-0.07223159078133783
aF-0.07249227311042428
aF-0.07275280898876405
aF-0.07301319853973604
aF-0.07327344188658057
aF-0.07269155206286837
aF-0.07295173961840629
aF-0.07321178120617111
aF-0.07347167694896242
aF-0.07289038407625456
aF-0.07230941704035874
aF-0.07256934715606612
aF-0.07282913165266107
aF-0.07308877065247829
aF-0.072508398656215
aF-0.07276798208788134
aF-0.07302742025741465
aF-0.07328671328671328
aF-0.07270693512304251
aF-0.07296617277047805
aF-0.07322526551145891
aF-0.073484213467449
aF-0.0729050279329609
aF-0.07232616587545379
aF-0.07258514796203239
aF-0.07284398548702205
aF-0.07310267857142858
aF-0.07336122733612273
aF-0.0736196319018405
aF-0.07387789238918316
aF-0.07413600891861762
aF-0.07355809417665088
aF-0.07381615598885793
aF-0.07407407407407407
aF-0.07349665924276169
aF-0.0729195658224325
aF-0.07317751808569839
aF-0.07260083449235048
aF-0.0728587319243604
aF-0.07311648596052266
aF-0.07337409672040023
aF-0.07279799944429008
aF-0.07305555555555555
aF-0.07331296861982782
aF-0.07357023875624653
aF-0.07438245906189286
aF-0.0746392896781354
aF-0.07489597780859916
aF-0.07432057681641709
aF-0.073745494871084
aF-0.07400221729490022
aF-0.0742587974508174
aF-0.0745152354570637
aF-0.07477153143173636
aF-0.07502768549280177
aF-0.07528369775809576
aF-0.07553956834532374
aF-0.07579529737206085
aF-0.07605088495575221
aF-0.07630633121371302
aF-0.0765616362631288
aF-0.07681680022105554
aF-0.0770718232044199
aF-0.07649820491576913
aF-0.07730535615681944
aF-0.0767319900634833
aF-0.07698675496688742
aF-0.07724137931034483
aF-0.07749586321014892
aF-0.07775020678246485
aF-0.07717750826901874
aF-0.07743179939377239
aF-0.0768595041322314
aF-0.07711374277058662
aF-0.07654185022026432
aF-0.07679603633360858
aF-0.07705008255365987
aF-0.07730398899587346
aF-0.07755775577557755
aF-0.0778113830079736
aF-0.07724024189114899
aF-0.07666941467436109
aF-0.07609890109890109
aF-0.07635265037077726
aF-0.0771554091158704
aF-0.07658523195168816
aF-0.07683863885839737
aF-0.07626886145404664
aF-0.07652221612726276
aF-0.07677543186180422
aF-0.07702850877192982
aF-0.07728144697177308
aF-0.07753424657534247
aF-0.0777869076965215
aF-0.078039430449069
aF-0.07747057213249384
aF-0.07772304324028462
aF-0.07797537619699042
aF-0.0774070021881838
aF-0.07683893902105551
aF-0.07627118644067797
aF-0.0765236403388904
aF-0.07595628415300547
aF-0.07620868615132477
aF-0.0764609503003823
aF-0.07671307671307671
aF-0.0769650655021834
aF-0.07639836289222374
aF-0.07583196944899072
aF-0.07608399236433051
aF-0.07688113413304253
aF-0.07631507222676479
aF-0.07656675749318802
aF-0.07600108962135659
aF-0.07679738562091504
aF-0.07704873400490063
aF-0.07784431137724551
aF-0.07809523809523809
aF-0.07752992383025027
aF-0.07832472124014142
aF-0.07857531266992931
aF-0.07882576787170427
aF-0.07907608695652174
aF-0.07932627003531649
aF-0.07876154263986963
aF-0.07901167526472984
aF-0.07844733984799131
aF-0.07869742198100407
aF-0.0781334780249593
aF-0.07756983997830215
aF-0.0770065075921909
aF-0.07644348061805367
aF-0.07669376693766938
aF-0.07613112977512869
aF-0.07638136511375948
aF-0.07581911724884917
aF-0.0752571737953438
aF-0.07550744248985115
aF-0.07575757575757576
aF-0.07600757370841223
aF-0.07625743645213628
aF-0.07569613409029467
aF-0.07594594594594595
aF-0.0761956228046474
aF-0.07644516477579687
aF-0.07669457196867405
aF-0.0769438444924406
aF-0.07719298245614035
aF-0.07663248785752834
aF-0.07688157539789588
aF-0.07713052858683926
aF-0.076570504179024
aF-0.07681940700808626
aF-0.07625976825653463
aF-0.07650862068965517
aF-0.07675733907891193
aF-0.07619816908992999
aF-0.0756393001345895
aF-0.07588805166846072
aF-0.07613666935700834
aF-0.0755782678859602
aF-0.07582683517074483
aF-0.07526881720430108
aF-0.07471109916689062
aF-0.07495969908651262
aF-0.07520816545796401
aF-0.07545649838882922
aF-0.07489932885906041
aF-0.07434245840042941
aF-0.0745908237188087
aF-0.07483905579399142
aF-0.07428264950388844
aF-0.07453083109919571
aF-0.07477887965692843
aF-0.07502679528403002
aF-0.07447093490490223
aF-0.07471880021424745
aF-0.0749665327978581
aF-0.07521413276231263
aF-0.07546160021407546
aF-0.0749063670411985
aF-0.07435143086386735
aF-0.07459893048128342
aF-0.07484629778134189
aF-0.07562800641368252
aF-0.07587496660432808
aF-0.07532051282051282
aF-0.07556742323097464
aF-0.07501334757074213
aF-0.0744595676541233
aF-0.07524012806830309
aF-0.07548679647906108
aF-0.07626666666666666
aF-0.07571314316182351
aF-0.07515991471215352
aF-0.07540634159339195
aF-0.07485348961108151
aF-0.07430093209054593
aF-0.07374866879659212
aF-0.07399520894330583
aF-0.07477381585949973
aF-0.07501995211492418
aF-0.07526595744680852
aF-0.07471417176282903
aF-0.07496012759170653
aF-0.07440871644964124
aF-0.07465462274176408
aF-0.0749003984063745
aF-0.07514604354753053
aF-0.07459516856915317
aF-0.07484076433121019
aF-0.07429026266914301
aF-0.07374005305039788
aF-0.07398568019093078
aF-0.07423117709437964
aF-0.07447654386429897
aF-0.07525172231054585
aF-0.07470198675496689
aF-0.07494703389830508
aF-0.0751919512840879
aF-0.07543673901535204
aF-0.07568139719502513
aF-0.07513227513227513
aF-0.07458344353345676
aF-0.0748281332628239
aF-0.07507269362939466
aF-0.0753171247357294
aF-0.07556142668428005
aF-0.07580559957739039
aF-0.07604964351729601
aF-0.0762935586061246
aF-0.07653734494589602
aF-0.07678100263852243
aF-0.0770245317858085
aF-0.07726793248945148
aF-0.07672027418929607
aF-0.07696362677912494
aF-0.0772068511198946
aF-0.07665964172813487
aF-0.07690281801422176
aF-0.07714586624539231
aF-0.07738878652276915
aF-0.07684210526315789
aF-0.07708497763746383
aF-0.0778537611783272
aF-0.07809623981067579
aF-0.07833859095688749
aF-0.07779237844940867
aF-0.07724645296899632
aF-0.07748883635408459
aF-0.07773109243697479
aF-0.0771856130217905
aF-0.07742782152230972
aF-0.07766990291262135
aF-0.07712486883525708
aF-0.07736690270128507
aF-0.07760880964866282
aF-0.07785058977719528
aF-0.07809224318658281
aF-0.07754781241812943
aF-0.07778941854374018
aF-0.07803089814087458
aF-0.07827225130890052
aF-0.07851347814708191
aF-0.07875457875457875
aF-0.07821082919173424
aF-0.07845188284518828
aF-0.07790849673202614
aF-0.07814950339780449
aF-0.07839038411288216
aF-0.07863113897596656
aF-0.07887176808566206
aF-0.07911227154046997
aF-0.07935264943878882
aF-0.07959290187891441
aF-0.07983302895903992
aF-0.08007303077725612
aF-0.07953063885267275
aF-0.07977059436913451
aF-0.07922856398227782
aF-0.07946847316310579
aF-0.07970825735868715
aF-0.07916666666666666
aF-0.07940640458214007
aF-0.07964601769911504
aF-0.07988550611501431
aF-0.08012486992715921
aF-0.07958387516254876
aF-0.07982319292771711
aF-0.08058227190018195
aF-0.08004158004158005
aF-0.08028059236165237
aF-0.08051948051948052
aF-0.07997922617501947
aF-0.08021806853582554
aF-0.07967817285232287
aF-0.07913855734302024
aF-0.07859922178988327
aF-0.07883817427385892
aF-0.07907700285195748
aF-0.07931570762052877
aF-0.07877688520342058
aF-0.07823834196891191
aF-0.0777000777000777
aF-0.07793889176592439
aF-0.07740098369143153
aF-0.07763975155279502
aF-0.07787839586028461
aF-0.07811691670977755
aF-0.07835531419705198
aF-0.07859358841778696
aF-0.07805634530886534
aF-0.07829457364341086
aF-0.07853267889434255
aF-0.07799586776859505
aF-0.07745933384972889
aF-0.07769747031491998
aF-0.07716129032258065
aF-0.07739938080495357
aF-0.07686355429455764
aF-0.07710159876224858
aF-0.0765661252900232
aF-0.07603092783505154
aF-0.07626900283432105
aF-0.07650695517774343
aF-0.07674478496008241
aF-0.07698249227600412
aF-0.07644787644787644
aF-0.07591353576942872
aF-0.07615127347568819
aF-0.0763888888888889
aF-0.0758549755721265
aF-0.07609254498714653
aF-0.07632999228989977
aF-0.07656731757451182
aF-0.07680452093501156
aF-0.07627118644067797
aF-0.07573812580231065
aF-0.07597535934291581
aF-0.07621247113163972
aF-0.07644946126218574
aF-0.07719928186714542
aF-0.07743589743589743
aF-0.07767239169443732
aF-0.07713992824192721
aF-0.0773763771457853
aF-0.0776127049180328
aF-0.07784891165172855
aF-0.07731694828469023
aF-0.07678525723061172
aF-0.07702149437052201
aF-0.07649015093374265
aF-0.07672634271099744
aF-0.07619534645870621
aF-0.07643149284253578
aF-0.07717863531817021
aF-0.0774144098109351
aF-0.07765006385696041
aF-0.0778855975485189
aF-0.077355118713301
aF-0.07682491066870853
aF-0.07629497320745088
aF-0.07653061224489796
aF-0.07600102014792146
aF-0.07674655787863335
aF-0.07698190160591384
aF-0.077217125382263
aF-0.07745222929936306
aF-0.07768721344880285
aF-0.07792207792207792
aF-0.07815682281059064
aF-0.07839144820565029
aF-0.07862595419847328
aF-0.0780971762910201
aF-0.07833163784333673
aF-0.07856598016781083
aF-0.0788002033553635
aF-0.07903430749682339
aF-0.07926829268292683
aF-0.07950215900431801
aF-0.07973590655154901
aF-0.07996953541507996
aF-0.07944162436548223
aF-0.07967520933773153
aF-0.0791476407914764
aF-0.07938118184123763
aF-0.07961460446247465
aF-0.07908745247148288
aF-0.07856056766345666
aF-0.07879402077527235
aF-0.0790273556231003
aF-0.0785008863003292
aF-0.07873417721518987
aF-0.07820804859529233
aF-0.07768218623481782
aF-0.07791550720971414
aF-0.07814871016691957
aF-0.07838179519595449
aF-0.07861476238624873
aF-0.07884761182714177
aF-0.07832238504295098
aF-0.07906036877999495
aF-0.0797979797979798
aF-0.08003029537995456
aF-0.07950530035335689
aF-0.07973757254605097
aF-0.07996972754793139
aF-0.08020176544766709
aF-0.08043368633383761
aF-0.0806654902949332
aF-0.08089717741935484
aF-0.08112874779541446
aF-0.08136020151133501
aF-0.08159153865525057
aF-0.081067472306143
aF-0.08054366977095394
aF-0.08002013085052843
aF-0.07949685534591194
aF-0.07972837022132796
aF-0.07920543122957002
aF-0.07943690296631473
aF-0.07966825835637095
aF-0.07989949748743719
aF-0.08013062044712384
aF-0.0803616273229533
aF-0.08059251820236003
aF-0.08007028112449799
aF-0.0795483061480552
aF-0.07977922729553437
aF-0.0800100326059694
aF-0.0802407221664995
aF-0.08047129606417648
aF-0.08070175438596491
aF-0.08093209721874217
aF-0.0811623246492986
aF-0.08064112196343601
aF-0.08012018027040561
aF-0.07959949937421777
aF-0.07907907907907907
aF-0.07855891918939205
aF-0.07878939469734868
aF-0.07826956739184796
aF-0.07775
aF-0.07723069232691827
aF-0.07746126936531735
aF-0.07694229328003997
aF-0.07642357642357642
aF-0.07590511860174781
aF-0.07613579630554168
aF-0.07636635887197404
aF-0.07584830339321358
aF-0.07607882264903966
aF-0.07630922693266833
aF-0.07653951633009225
aF-0.07676969092721835
aF-0.07699975080986793
aF-0.07722969606377678
aF-0.07795765877957658
aF-0.07818725099601594
aF-0.07841672890216579
aF-0.07864609258337481
aF-0.0781288877830306
aF-0.07761194029850746
aF-0.0770952499378264
aF-0.07732471407260069
aF-0.07755406413124534
aF-0.07778330019880715
aF-0.07801242236024845
aF-0.07824143070044709
aF-0.07772535386143531
aF-0.07720953326713009
aF-0.0766939687267312
aF-0.07692307692307693
aF-0.07715207144629124
aF-0.07738095238095238
aF-0.07686585668237045
aF-0.07709469509172037
aF-0.07732342007434945
aF-0.07680872150644202
aF-0.07703740401288085
aF-0.07726597325408618
aF-0.0779896013864818
aF-0.07821782178217822
aF-0.07844592922543925
aF-0.07867392380009897
aF-0.07815978233984665
aF-0.07764589515331355
aF-0.07713226205191595
aF-0.0773603559070687
aF-0.07758833703978256
aF-0.07707509881422925
aF-0.07730303778710793
aF-0.07753086419753086
aF-0.07775857812885707
aF-0.07724580454096742
aF-0.07673328398717
aF-0.07622101628021707
aF-0.07644882860665844
aF-0.07667652859960553
aF-0.07690411634212473
aF-0.07713159191720059
aF-0.0773589554077359
aF-0.07758620689655173
aF-0.07781334646638759
aF-0.07730182176267848
aF-0.07752891951759783
aF-0.07775590551181102
aF-0.07798277982779828
aF-0.07820954254795869
aF-0.07843619375461028
aF-0.07866273352999016
aF-0.0788891619562546
aF-0.07911547911547911
aF-0.07934168508965857
aF-0.07956777996070727
aF-0.07979376381045912
aF-0.07928325969563083
aF-0.07950920245398772
aF-0.07899901864573111
aF-0.07848908511160167
aF-0.07871505640019617
aF-0.07894091689139494
aF-0.07916666666666666
aF-0.07939230580740014
aF-0.07961783439490445
aF-0.07984325251040901
aF-0.08006856023506366
aF-0.08078335373317014
aF-0.08100832109642682
aF-0.08049914362613164
aF-0.08072407045009784
aF-0.08094888725849841
aF-0.080440097799511
aF-0.08066487411390857
aF-0.08088954056695992
aF-0.08111409723918886
aF-0.08133854421104054
aF-0.08156288156288156
aF-0.0810546875
aF-0.0812789846228948
aF-0.08077110785749146
aF-0.0809953647231032
aF-0.08121951219512195
aF-0.08071202145818093
aF-0.08020477815699659
aF-0.08042895442359249
aF-0.08065302144249513
aF-0.08014616321559075
aF-0.08037018996590356
aF-0.08059410762113464
aF-0.08008763388510223
aF-0.08031151131662205
aF-0.0805352798053528
aF-0.08075893943079543
aF-0.08025291828793775
aF-0.08047653780695356
aF-0.08070004861448711
aF-0.08019441069258809
aF-0.0804178814382896
aF-0.07991255768763662
aF-0.0794074793589121
aF-0.07963097839281379
aF-0.07985436893203883
aF-0.07934967240960931
aF-0.07884522076661815
aF-0.0790686393402862
aF-0.07856450048496605
aF-0.07878787878787878
aF-0.07901114881240912
aF-0.07850739035619093
aF-0.07873062015503876
aF-0.07895374182610802
aF-0.0791767554479419
aF-0.07867344468651659
aF-0.07889641819941917
aF-0.07911928381321075
aF-0.07934204160619256
aF-0.07956469165659008
aF-0.0797872340425532
aF-0.08000966884215616
aF-0.07950700821652973
aF-0.07972940323749698
aF-0.07922705314009662
aF-0.0794494083554697
aF-0.07967165620473202
aF-0.07989379676562877
aF-0.08011583011583012
aF-0.08033775633293125
aF-0.08055957549445249
aF-0.0807812876778394
aF-0.08027965284474446
aF-0.07977825982164377
aF-0.08
aF-0.08022163334136352
aF-0.0804431599229287
aF-0.08066457982181556
aF-0.08088589311506982
aF-0.08110709987966305
aF-0.08060635226179018
aF-0.08082751984604282
aF-0.08104858104858105
aF-0.0812695359461409
aF-0.08076923076923077
aF-0.08026916606584955
aF-0.08049014896684287
aF-0.0807110257026183
aF-0.08093179634966378
aF-0.08163265306122448
aF-0.08185309649543927
aF-0.08135349172066235
aF-0.08085412667946257
aF-0.08035500119932838
aF-0.08057553956834532
aF-0.08079597218892352
aF-0.08029721955896453
aF-0.08051761322789361
aF-0.08073790129372305
aF-0.08095808383233533
aF-0.08045977011494253
aF-0.0799616949964089
aF-0.08018190521780756
aF-0.07968413496051686
aF-0.0799043062200957
aF-0.07940684046878738
aF-0.07962697274031563
aF-0.07912981114032991
aF-0.07934990439770555
aF-0.07956989247311828
aF-0.07978977544194936
aF-0.080009553379508
aF-0.08022922636103152
aF-0.08044879446168536
aF-0.07995226730310262
aF-0.08017179670722978
aF-0.08039122137404581
aF-0.07989506320057238
aF-0.08011444921316166
aF-0.07961859356376638
aF-0.07912297426120114
aF-0.07862759113652609
aF-0.07813244402096237
aF-0.07763753274589189
aF-0.07714285714285714
aF-0.0773625327303023
aF-0.07686815801999049
aF-0.07708779443254818
aF-0.07659372026641294
aF-0.07681331747919144
aF-0.07703281027104136
aF-0.07725219871642501
aF-0.07747148288973384
aF-0.07769066286528867
aF-0.07790973871733967
aF-0.0781287105200665
aF-0.07834757834757834
aF-0.07785426062188465
aF-0.07807308970099668
aF-0.07758007117437722
aF-0.07708728652751423
aF-0.07659473559402419
aF-0.07610241820768136
aF-0.07561033420241764
aF-0.07511848341232227
aF-0.07533759772565743
aF-0.07555660824253908
aF-0.07577551503670377
aF-0.07528409090909091
aF-0.07550295857988165
aF-0.07501183151916706
aF-0.0745209368346345
aF-0.0740302743614002
aF-0.07424923149680776
aF-0.07375886524822695
aF-0.07397778303001655
aF-0.07419659735349717
aF-0.073706591070163
aF-0.07392536608408125
aF-0.07414403778040142
aF-0.07436260623229461
aF-0.07458107151286288
aF-0.07479943369513922
aF-0.07501769285208776
aF-0.07523584905660377
aF-0.0754539023815138
aF-0.07496463932107496
aF-0.07447560688192317
aF-0.07398680490103676
aF-0.07420494699646643
aF-0.0737164390014131
aF-0.07322816105486225
aF-0.07274011299435028
aF-0.07295834313956225
aF-0.07317647058823529
aF-0.07339449541284404
aF-0.07408278457196614
aF-0.07359510933458735
aF-0.07310766337564645
aF-0.07262044653349001
aF-0.07283834586466166
aF-0.07305614282358468
aF-0.0732738374823861
aF-0.07278703921108241
aF-0.07230046948356808
aF-0.07181412813893452
aF-0.07132801501642422
aF-0.07154585972319963
aF-0.07223264540337711
aF-0.07245017584994139
aF-0.07196436943272386
aF-0.07218186079212562
aF-0.07239925023430178
aF-0.07261653783087374
aF-0.07283372365339578
aF-0.07234839616014985
aF-0.07256554307116105
aF-0.07278258834542475
aF-0.07299953205428171
aF-0.07321637426900585
aF-0.07390084190832553
aF-0.07341594575637128
aF-0.0729312762973352
aF-0.07314793175975695
aF-0.07336448598130842
aF-0.07288016818500351
aF-0.07239607659971976
aF-0.07191221106700911
aF-0.07142857142857142
aF-0.07094515752625438
aF-0.07116192253849743
aF-0.07137858642407278
aF-0.07159514925373134
aF-0.07181161109815808
aF-0.07132867132867132
aF-0.07154509438359356
aF-0.07106244175209693
aF-0.07058001397624039
aF-0.07079646017699115
aF-0.0710128055878929
aF-0.07053072625698324
aF-0.07004887130556202
aF-0.06956724057701257
aF-0.06908583391486392
aF-0.06930232558139535
aF-0.06951871657754011
aF-0.06903765690376569
aF-0.06925400883104811
aF-0.0687732342007435
aF-0.06898954703832752
aF-0.06920575940548072
aF-0.06942187137218482
aF-0.06963788300835655
aF-0.06985379438384776
aF-0.06937354988399072
aF-0.07005335189051264
aF-0.06957328385899815
aF-0.06978900996985857
aF-0.07000463606861382
aF-0.07022016222479723
aF-0.06974050046339203
aF-0.0699559879545981
aF-0.07017137563686893
aF-0.06969205834683954
aF-0.06921296296296296
aF-0.06873408933117334
aF-0.06894956038870893
aF-0.06916493176035161
aF-0.06938020351526364
aF-0.06959537572254336
aF-0.06981044845122515
aF-0.07002542177027964
aF-0.069547134935305
aF-0.06976206976206976
aF-0.06997690531177829
aF-0.06949896097898868
aF-0.06971375807940905
aF-0.07039003000230787
aF-0.07060452238117212
aF-0.07081891580161476
aF-0.07034132841328414
aF-0.07055568365229421
aF-0.07007837713231904
aF-0.07029269416916341
aF-0.07050691244239632
aF-0.07072103202027183
aF-0.07024412713035467
aF-0.06976744186046512
aF-0.06998158379373849
aF-0.07065592635212889
aF-0.07017947537965946
aF-0.06970324361628709
aF-0.06922723091076358
aF-0.06944125086226718
aF-0.0696551724137931
aF-0.06986899563318777
aF-0.0700827205882353
aF-0.06960716747070986
aF-0.06913183279742766
aF-0.06934557979334098
aF-0.06955922865013774
aF-0.06977277943539133
aF-0.06998623221661313
aF-0.07019958706125258
aF-0.07087155963302752
aF-0.0710846136207292
aF-0.0712975699220541
aF-0.07151042860417144
aF-0.07103574702108158
aF-0.07056128293241695
aF-0.0700870361887311
aF-0.07029997710098465
aF-0.06982600732600733
aF-0.07003891050583658
aF-0.06956521739130435
aF-0.06977808281857699
aF-0.06930466605672461
aF-0.06883146581294305
aF-0.06835848193872886
aF-0.06857142857142857
aF-0.06878427787934187
aF-0.06831162896961389
aF-0.06852444038373687
aF-0.0687371546015072
aF-0.0682648401826484
aF-0.06779274138324583
aF-0.06732085805568233
aF-0.0675336527492585
aF-0.06706204379562043
aF-0.06727480045610035
aF-0.06680346557227543
aF-0.0670161841805334
aF-0.06722880583409298
aF-0.06789701526543632
aF-0.06810933940774487
aF-0.06832156684126622
aF-0.06853369763205829
aF-0.06874573184611883
aF-0.06827492034592626
aF-0.06848691695108078
aF-0.06801637852593266
aF-0.06868319308619514
aF-0.06821282401091405
aF-0.06842464196408275
aF-0.06863636363636363
aF-0.06884798909338787
aF-0.06837800999545661
aF-0.06790824437883261
aF-0.0681198910081744
aF-0.06765039727582293
aF-0.0678620063549705
aF-0.06807351940095303
aF-0.06760435571687841
aF-0.06781583125425267
aF-0.0673469387755102
aF-0.06755837678530946
aF-0.06776971894832276
aF-0.06730115567641061
aF-0.06751246035342093
aF-0.06704416761041902
aF-0.06657608695652174
aF-0.06610821824767942
aF-0.06631960162969669
aF-0.06653088934147998
aF-0.0667420814479638
aF-0.06695317801402398
aF-0.06716417910447761
aF-0.0673750847840832
aF-0.06758589511754069
aF-0.0671186440677966
aF-0.06732941708088568
aF-0.06754009487237407
aF-0.06775067750677506
aF-0.06796116504854369
aF-0.06749435665914222
aF-0.06770480704129993
aF-0.06791516245487364
aF-0.06812542296413264
aF-0.06765899864682003
aF-0.06786922209695603
aF-0.06807935076645627
aF-0.068289384719405
aF-0.06849932401982875
aF-0.06915972065780582
aF-0.06936936936936937
aF-0.06957892366584102
aF-0.06978838361098605
aF-0.06999774926851227
aF-0.0702070207020702
aF-0.06974128233970754
aF-0.06995051731893837
aF-0.070159658196537
aF-0.06969424460431654
aF-0.06990334906720612
aF-0.0701123595505618
aF-0.06964727027634239
aF-0.06985624438454627
aF-0.06939142151358635
aF-0.06892680736416704
aF-0.0691358024691358
aF-0.06934470377019748
aF-0.06955351133049137
aF-0.06908927770300584
aF-0.06862525229872168
aF-0.06816143497757847
aF-0.06769782559964134
aF-0.06723442402510085
aF-0.06677123011427291
aF-0.06630824372759857
aF-0.06651735722284434
aF-0.06605463502015226
aF-0.06559211999104544
aF-0.06580125335720681
aF-0.06601029313045424
aF-0.06621923937360179
aF-0.0657571013196153
aF-0.0659660107334526
aF-0.06550413592667113
aF-0.06504246759052303
aF-0.06525139664804469
aF-0.06546023235031279
aF-0.06566897475988386
aF-0.0658776239392586
aF-0.06541638758651484
aF-0.065625
aF-0.06516402588707877
aF-0.06537260151717983
aF-0.06558108409547178
aF-0.06512042818911686
aF-0.0653288740245262
aF-0.06486847971466786
aF-0.0650768887898373
aF-0.06528520499108735
aF-0.06549342838048564
aF-0.06614699331848552
aF-0.06635493208639501
aF-0.06656277827248441
aF-0.0661028266191854
aF-0.06631063640409435
aF-0.06585094549499444
aF-0.0653914590747331
aF-0.06604402935290193
aF-0.06558470431302801
aF-0.06512558346299177
aF-0.06533333333333333
aF-0.06554099089091313
aF-0.06574855619724566
aF-0.06595602931379081
aF-0.06616341030195382
aF-0.06570477247502775
aF-0.06524633821571238
aF-0.06545373862879965
aF-0.06566104702750665
aF-0.0658682634730539
aF-0.06607538802660753
aF-0.06628242074927954
aF-0.06648936170212766
aF-0.06669621094615555
aF-0.06623836951705804
aF-0.0664451827242525
aF-0.06598759964570416
aF-0.06619437679876024
aF-0.06573705179282868
aF-0.06594379287452977
aF-0.0661504424778761
aF-0.06569343065693431
aF-0.0659000442282176
aF-0.06610656643820473
aF-0.0656498673740053
aF-0.06585635359116022
aF-0.06606274856385329
aF-0.06626905235255136
aF-0.06647526501766785
aF-0.06601898873923603
aF-0.06556291390728476
aF-0.06510704038843522
aF-0.06531332744924978
aF-0.06551952349437459
aF-0.06572562858403176
aF-0.0659316427783903
aF-0.06547619047619048
aF-0.0656821688340313
aF-0.06522697223446453
aF-0.06477197620621282
aF-0.06497797356828194
aF-0.06518388020259855
aF-0.0653896961690885
aF-0.06559542152762492
aF-0.06514084507042253
aF-0.06534653465346535
aF-0.06555213374395072
aF-0.0650978667253134
aF-0.06530343007915568
aF-0.06550890305561662
aF-0.06571428571428571
aF-0.06526038233355307
aF-0.06546572934973638
aF-0.06567098616296947
aF-0.06521739130434782
aF-0.06476399560922064
aF-0.06431079894644424
aF-0.06451612903225806
aF-0.06472136902150066
aF-0.0649265189734591
aF-0.06447368421052632
aF-0.06467879850909888
aF-0.0648838228846997
aF-0.06443129520052597
aF-0.06397896581945661
aF-0.06418400876232201
aF-0.06438896189224705
aF-0.06393693890956864
aF-0.06414185639229422
aF-0.06434668417596848
aF-0.06389496717724288
aF-0.06344344782323343
aF-0.0636482939632546
aF-0.06385305051388585
aF-0.06405771753388718
aF-0.06426229508196721
aF-0.06446678321678322
aF-0.06467118199694123
aF-0.06422018348623854
aF-0.06442454684428915
aF-0.06462882096069869
aF-0.06417812704649639
aF-0.06438236577913575
aF-0.0639319223216234
aF-0.06413612565445026
aF-0.064340239912759
aF-0.06454426515481901
aF-0.06409417920209287
aF-0.06473408892763731
aF-0.06493789496622358
aF-0.06514161220043573
aF-0.0653452406883032
aF-0.06554878048780488
aF-0.06575223165686915
aF-0.06530256856769699
aF-0.06550598476605006
aF-0.06570931244560488
aF-0.06525995214270176
aF-0.06481078729882557
aF-0.06501413350728419
aF-0.06521739130434782
aF-0.06476852858074332
aF-0.06497175141242938
aF-0.0651748859439496
aF-0.06537793223284101
aF-0.06558089033659066
aF-0.06513243595310464
aF-0.0653353592359453
aF-0.06488715277777778
aF-0.06443914081145585
aF-0.06464208242950109
aF-0.06484493602255476
aF-0.06504770164787511
aF-0.06525037936267071
aF-0.06480277416558301
aF-0.06435536294691224
aF-0.0645580589254766
aF-0.06411089452025125
aF-0.06366392377652663
aF-0.06386663780038969
aF-0.06341991341991342
aF-0.0629733823847652
aF-0.06317611423626136
aF-0.06381137789314298
aF-0.06444636678200692
aF-0.06464864864864865
aF-0.0648508430609598
aF-0.06548519559109574
aF-0.06568712186689715
aF-0.06588896089868222
aF-0.06609071274298056
aF-0.06629237745627295
aF-0.06649395509499137
aF-0.06604791711633931
aF-0.06624946050927924
aF-0.06645091693635383
aF-0.06665228645383951
aF-0.0668535691179642
aF-0.06640793445450625
aF-0.06660918301358051
aF-0.0668103448275862
aF-0.06701141995259642
aF-0.06721240844463593
aF-0.06741331035968125
aF-0.06761412575366063
aF-0.06716899892357374
aF-0.0667240637107189
aF-0.06692489778351625
aF-0.06712564543889846
aF-0.06668100666810067
aF-0.06623655913978495
aF-0.06643732530638573
aF-0.06663800515907137
aF-0.06683859875349236
aF-0.06639449935539321
aF-0.06659505907626208
aF-0.06679553264604811
aF-0.06699592012024909
aF-0.06655216831258051
aF-0.06675252200042928
aF-0.06695278969957082
aF-0.06715297146535078
aF-0.06735306735306736
aF-0.06755307741797126
aF-0.0671097770154374
aF-0.06730975348338693
aF-0.0675096442348907
aF-0.06770944932504822
aF-0.06790916880891174
aF-0.06746626686656672
aF-0.06766595289079229
aF-0.06786555341468636
aF-0.06742294520547945
aF-0.06698052642841858
aF-0.06718014548566538
aF-0.06737967914438503
aF-0.06757912745936698
aF-0.06713705366688048
aF-0.06733646857631466
aF-0.06753579824748877
aF-0.06773504273504273
aF-0.06729331339457381
aF-0.06749252456215292
aF-0.0676916506512919
aF-0.06789069171648164
aF-0.06808964781216649
aF-0.06764831412718737
aF-0.06720716876466823
aF-0.0674061433447099
aF-0.06760503305608871
aF-0.06780383795309168
aF-0.0680025580899595
aF-0.06820119352088662
aF-0.06839974430002131
aF-0.06859821048146571
aF-0.06879659211927583
aF-0.06899488926746167
aF-0.06855439642324888
aF-0.06875266070668369
aF-0.06937646307725048
aF-0.06957446808510638
aF-0.06977238885343544
aF-0.06933219906422798
aF-0.06953008717839677
aF-0.06972789115646258
aF-0.06992561105207226
aF-0.07012324691882703
aF-0.07074569789674952
aF-0.07094307561597281
aF-0.0711403695052028
aF-0.07070063694267516
aF-0.07089789853534281
aF-0.07109507640067912
aF-0.07129217059197963
aF-0.0714891811624947
aF-0.07168610816542947
aF-0.07124681933842239
aF-0.07080771676913292
aF-0.07100466299279355
aF-0.0712015257469803
aF-0.07076271186440677
aF-0.07095954246981571
aF-0.07115628970775095
aF-0.07071776413296633
aF-0.07091447925486875
aF-0.07111111111111111
aF-0.07067287346593314
aF-0.0702348212396869
aF-0.07043147208121828
aF-0.07062803975470501
aF-0.07019027484143764
aF-0.07080955400549567
aF-0.07037193575655114
aF-0.06993450242974858
aF-0.06949725390790029
aF-0.06969376979936642
aF-0.0698902027027027
aF-0.06945324044754064
aF-0.06964964119881807
aF-0.0692129141169023
aF-0.06940928270042195
aF-0.06897279055051676
aF-0.06853648249683678
aF-0.06810035842293907
aF-0.06829679595278246
aF-0.0684931506849315
aF-0.06868942267172355
aF-0.06825363387402571
aF-0.06844987363100252
aF-0.06864603074331438
aF-0.0688421052631579
aF-0.06903809724268575
aF-0.06923400673400673
aF-0.06879865348201136
aF-0.06836348338241481
aF-0.06855941114616193
aF-0.06875525651808242
aF-0.06895101955013665
aF-0.06914670029424128
aF-0.06934229880226939
aF-0.06890756302521009
aF-0.06910312959462298
aF-0.06929861402771945
aF-0.06886416124291413
aF-0.06905961376994123
aF-0.06925498426023086
aF-0.06945027276542173
aF-0.06901615271659324
aF-0.06921140939597316
aF-0.06940658418955756
aF-0.06960167714884696
aF-0.06916788933137707
aF-0.06936295054484493
aF-0.0695579300230463
aF-0.06975282781734395
aF-0.06931937172774869
aF-0.06888609715242881
aF-0.06845300397739167
aF-0.06864796986186689
aF-0.06821510776313036
aF-0.06778242677824267
aF-0.06797741058355992
aF-0.06817231283981598
aF-0.06773991218900272
aF-0.06793478260869565
aF-0.06750261233019854
aF-0.06769745089845382
aF-0.06789220806350532
aF-0.06746031746031746
aF-0.0676550428064314
aF-0.06784968684759916
aF-0.06804424963473178
aF-0.0676126878130217
aF-0.06718130607135406
aF-0.06675010429703797
aF-0.06694473409801877
aF-0.06713928273561301
aF-0.06733375026057953
aF-0.06752813672363485
aF-0.06772244217545322
aF-0.06791666666666667
aF-0.06811081024786503
aF-0.068304872969596
aF-0.06787424526337706
aF-0.06806827643630307
aF-0.06763787721123829
aF-0.06720765709529755
aF-0.06677761597670065
aF-0.06697171381031614
aF-0.06716573092118944
aF-0.06673596673596674
aF-0.0663063812097277
aF-0.06650041562759768
aF-0.06669436941616455
aF-0.06688824262567511
aF-0.06708203530633437
aF-0.06727574750830564
aF-0.06746937928171061
aF-0.0676629306766293
aF-0.06723386594729197
aF-0.06742738589211618
aF-0.06699854801908318
aF-0.0665698880132725
aF-0.06614140576404727
aF-0.06633499170812604
aF-0.06652849740932643
aF-0.06610029009531704
aF-0.06567226020302465
aF-0.0652444076222038
aF-0.06481673224270035
aF-0.0650103519668737
aF-0.06458290209066446
aF-0.06415562913907284
aF-0.06372853300227602
aF-0.06392221762515515
aF-0.0641158221302999
aF-0.06430934656741108
aF-0.06388257184205086
aF-0.06407606448945845
aF-0.06426947716470345
aF-0.06446280991735537
aF-0.06465606279694278
aF-0.06526228831061545
aF-0.06545529630394384
aF-0.06564822460776218
aF-0.06584107327141382
aF-0.06541477507222451
aF-0.06498865277491232
aF-0.06518151815181518
aF-0.06475561971540524
aF-0.0643298969072165
aF-0.0645227788084931
aF-0.06471558120362737
aF-0.06429012981660828
aF-0.0638648537288834
aF-0.06343975283213182
aF-0.0636326194398682
aF-0.06382540662960676
aF-0.06401811445039111
aF-0.06421074295122453
aF-0.06440329218106997
aF-0.06397860522526229
aF-0.06417112299465241
aF-0.06436356158749743
aF-0.06455592105263158
aF-0.06413155190133607
aF-0.06432387998355939
aF-0.06451612903225806
aF-0.06470829909613804
aF-0.06490039022386528
aF-0.06509240246406571
aF-0.0652843358653254
aF-0.06547619047619048
aF-0.06566796634516725
aF-0.0658596635207222
aF-0.06605128205128205
aF-0.06562756357670221
aF-0.06520401886405577
aF-0.06478064780647806
aF-0.06435745029719205
aF-0.06454918032786885
aF-0.06474083179676296
aF-0.06493240475215076
aF-0.06512389924226909
aF-0.06572481572481573
aF-0.06591606960081883
aF-0.06610724519033975
aF-0.06568446899938613
aF-0.06587561374795417
aF-0.06545305788504807
aF-0.0656441717791411
aF-0.06583520752402372
aF-0.06602616516762061
aF-0.06621704475781728
aF-0.06579485083776053
aF-0.06598569969356487
aF-0.06556372549019608
aF-0.0657545435981213
aF-0.06533278889342589
aF-0.065523576240049
aF-0.06510204081632653
aF-0.0646806774127729
aF-0.06487148102815178
aF-0.06506220681215583
aF-0.06525285481239804
aF-0.06483180428134556
aF-0.06502242152466367
aF-0.06460158956592622
aF-0.0647921760391198
aF-0.06498268486453453
aF-0.06456211812627291
aF-0.064752596212584
aF-0.06433224755700326
aF-0.06452269489110524
aF-0.0641025641025641
aF-0.0636826042726348
aF-0.06326281529698942
aF-0.06284319707138498
aF-0.06242374949166328
aF-0.0626143525106729
aF-0.06219512195121951
aF-0.06177606177606178
aF-0.061357171881349044
aF-0.061547836684948204
aF-0.06173842404549147
aF-0.06192893401015229
aF-0.06211936662606577
aF-0.0623097219403288
aF-0.0625
aF-0.06269020085209982
aF-0.06288032454361055
aF-0.06246197525856824
aF-0.06305758313057583
aF-0.06324751672410298
aF-0.06282934738548845
aF-0.0630192502532928
aF-0.06320907617504051
aF-0.06339882519748835
aF-0.06298096395301742
aF-0.06317068232435716
aF-0.06275303643724696
aF-0.06294272414490994
aF-0.06313233508700931
aF-0.06332186931013555
aF-0.06290453074433656
aF-0.062487360970677454
aF-0.06267691063485645
aF-0.06286638366686881
aF-0.06244947453516572
aF-0.06203273388563346
aF-0.06222222222222222
aF-0.06180569581902646
aF-0.061995153473344104
aF-0.06157884110640016
aF-0.06176826806620912
aF-0.06236125126135217
aF-0.06255044390637611
aF-0.062134355456929594
aF-0.06232351754739814
aF-0.06251260334744908
aF-0.062096774193548386
aF-0.062285829469864946
aF-0.06247480854494156
aF-0.06266371146483982
aF-0.06285253827558421
aF-0.06243705941591138
aF-0.0626258558195731
aF-0.0628145762029394
aF-0.06239935587761675
aF-0.06198430267659489
aF-0.06217303822937626
aF-0.06236169784751559
aF-0.06255028157683025
aF-0.06273878946310074
aF-0.06292722155207077
aF-0.06311557788944723
aF-0.06270096463022508
aF-0.06288929073739201
aF-0.06247488951386099
aF-0.06266318537859007
aF-0.06224899598393574
aF-0.061834972897008636
aF-0.06142111601766359
aF-0.06100742524583584
aF-0.06059390048154093
aF-0.06018054162487462
aF-0.06036903329322102
aF-0.06095849207940646
aF-0.061146752205292705
aF-0.06133493686109441
aF-0.06152304609218437
aF-0.06110999799639351
aF-0.060697115384615384
aF-0.0608852393350691
aF-0.06047256708049659
aF-0.06066066066066066
aF-0.060248198558847076
aF-0.06043626175705423
aF-0.06062424969987995
aF-0.060812162432486494
aF-0.061
aaI5000
a.