(lp0
(lp1
F-1.0
aF-1.0
aF0.0
aF-0.25
aF-0.4
aF0.0
aF0.2857142857142857
aF0.5
aF0.6666666666666666
aF0.5
aF0.36363636363636365
aF0.25
aF0.15384615384615385
aF0.07142857142857142
aF0.0
aF-0.0625
aF-0.11764705882352941
aF-0.16666666666666666
aF-0.21052631578947367
aF-0.1
aF-0.14285714285714285
aF-0.18181818181818182
aF-0.30434782608695654
aF-0.3333333333333333
aF-0.36
aF-0.38461538461538464
aF-0.4074074074074074
aF-0.42857142857142855
aF-0.3448275862068966
aF-0.36666666666666664
aF-0.3870967741935484
aF-0.40625
aF-0.42424242424242425
aF-0.35294117647058826
aF-0.2857142857142857
aF-0.2222222222222222
aF-0.16216216216216217
aF-0.18421052631578946
aF-0.20512820512820512
aF-0.225
aF-0.24390243902439024
aF-0.19047619047619047
aF-0.20930232558139536
aF-0.22727272727272727
aF-0.17777777777777778
aF-0.1956521739130435
aF-0.2127659574468085
aF-0.22916666666666666
aF-0.24489795918367346
aF-0.26
aF-0.21568627450980393
aF-0.17307692307692307
aF-0.18867924528301888
aF-0.2037037037037037
aF-0.16363636363636364
aF-0.17857142857142858
aF-0.14035087719298245
aF-0.15517241379310345
aF-0.1694915254237288
aF-0.13333333333333333
aF-0.14754098360655737
aF-0.11290322580645161
aF-0.12698412698412698
aF-0.140625
aF-0.15384615384615385
aF-0.16666666666666666
aF-0.1791044776119403
aF-0.14705882352941177
aF-0.15942028985507245
aF-0.17142857142857143
aF-0.18309859154929578
aF-0.1527777777777778
aF-0.1643835616438356
aF-0.20270270270270271
aF-0.21333333333333335
aF-0.2236842105263158
aF-0.23376623376623376
aF-0.24358974358974358
aF-0.25316455696202533
aF-0.2625
aF-0.2716049382716049
aF-0.2804878048780488
aF-0.2891566265060241
aF-0.2976190476190476
aF-0.3058823529411765
aF-0.313953488372093
aF-0.3218390804597701
aF-0.32954545454545453
aF-0.33707865168539325
aF-0.34444444444444444
aF-0.3516483516483517
aF-0.358695652173913
aF-0.3655913978494624
aF-0.3404255319148936
aF-0.3157894736842105
aF-0.3229166666666667
aF-0.29896907216494845
aF-0.2755102040816326
aF-0.2828282828282828
aF-0.29
aF-0.26732673267326734
aF-0.29411764705882354
aF-0.30097087378640774
aF-0.3076923076923077
aF-0.3142857142857143
aF-0.32075471698113206
aF-0.32710280373831774
aF-0.3055555555555556
aF-0.3302752293577982
aF-0.35454545454545455
aF-0.36036036036036034
aF-0.36607142857142855
aF-0.34513274336283184
aF-0.3508771929824561
aF-0.33043478260869563
aF-0.33620689655172414
aF-0.3418803418803419
aF-0.3474576271186441
aF-0.35294117647058826
aF-0.35833333333333334
aF-0.33884297520661155
aF-0.319672131147541
aF-0.3008130081300813
aF-0.3064516129032258
aF-0.328
aF-0.30952380952380953
aF-0.31496062992125984
aF-0.3203125
aF-0.34108527131782945
aF-0.3230769230769231
aF-0.3282442748091603
aF-0.3333333333333333
aF-0.3383458646616541
aF-0.34328358208955223
aF-0.32592592592592595
aF-0.33088235294117646
aF-0.3357664233576642
aF-0.3188405797101449
aF-0.3237410071942446
aF-0.32857142857142857
aF-0.3333333333333333
aF-0.3380281690140845
aF-0.32167832167832167
aF-0.3263888888888889
aF-0.3310344827586207
aF-0.3356164383561644
aF-0.3197278911564626
aF-0.32432432432432434
aF-0.3288590604026846
aF-0.31333333333333335
aF-0.2980132450331126
aF-0.3026315789473684
aF-0.30718954248366015
aF-0.3116883116883117
aF-0.3161290322580645
aF-0.32051282051282054
aF-0.3248407643312102
aF-0.3291139240506329
aF-0.3333333333333333
aF-0.35
aF-0.35403726708074534
aF-0.3395061728395062
aF-0.34355828220858897
aF-0.3475609756097561
aF-0.3515151515151515
aF-0.3373493975903614
aF-0.3413173652694611
aF-0.35714285714285715
aF-0.3431952662721893
aF-0.34705882352941175
aF-0.3508771929824561
aF-0.3372093023255814
aF-0.34104046242774566
aF-0.3275862068965517
aF-0.3314285714285714
aF-0.3352272727272727
aF-0.3389830508474576
aF-0.34269662921348315
aF-0.3463687150837989
aF-0.35
aF-0.35359116022099446
aF-0.35714285714285715
aF-0.3442622950819672
aF-0.34782608695652173
aF-0.35135135135135137
aF-0.3548387096774194
aF-0.3582887700534759
aF-0.34574468085106386
aF-0.3333333333333333
aF-0.3368421052631579
aF-0.3403141361256545
aF-0.34375
aF-0.3471502590673575
aF-0.35051546391752575
aF-0.35384615384615387
aF-0.35714285714285715
aF-0.3604060913705584
aF-0.36363636363636365
aF-0.36683417085427134
aF-0.37
aF-0.373134328358209
aF-0.37623762376237624
aF-0.3645320197044335
aF-0.35294117647058826
aF-0.34146341463414637
aF-0.3446601941747573
aF-0.3333333333333333
aF-0.33653846153846156
aF-0.3397129186602871
aF-0.34285714285714286
aF-0.33175355450236965
aF-0.33490566037735847
aF-0.3380281690140845
aF-0.3411214953271028
aF-0.3302325581395349
aF-0.3333333333333333
aF-0.33640552995391704
aF-0.3394495412844037
aF-0.3424657534246575
aF-0.34545454545454546
aF-0.334841628959276
aF-0.32432432432432434
aF-0.31390134529147984
aF-0.32589285714285715
aF-0.3288888888888889
aF-0.3185840707964602
aF-0.32158590308370044
aF-0.32456140350877194
aF-0.314410480349345
aF-0.3173913043478261
aF-0.3203463203463203
aF-0.3232758620689655
aF-0.3261802575107296
aF-0.3162393162393162
aF-0.3276595744680851
aF-0.3177966101694915
aF-0.3206751054852321
aF-0.3235294117647059
aF-0.3263598326359833
aF-0.32916666666666666
aF-0.33195020746887965
aF-0.3347107438016529
aF-0.3374485596707819
aF-0.3401639344262295
aF-0.34285714285714286
aF-0.34552845528455284
aF-0.3481781376518219
aF-0.35080645161290325
aF-0.3534136546184739
aF-0.356
aF-0.3466135458167331
aF-0.3492063492063492
aF-0.35177865612648224
aF-0.3543307086614173
aF-0.3568627450980392
aF-0.34765625
aF-0.35019455252918286
aF-0.35271317829457366
aF-0.3436293436293436
aF-0.34615384615384615
aF-0.3486590038314176
aF-0.3511450381679389
aF-0.34220532319391633
aF-0.3446969696969697
aF-0.33584905660377357
aF-0.3383458646616541
aF-0.3408239700374532
aF-0.34328358208955223
aF-0.34572490706319703
aF-0.34814814814814815
aF-0.3505535055350554
aF-0.35294117647058826
aF-0.3553113553113553
aF-0.35766423357664234
aF-0.3490909090909091
aF-0.34057971014492755
aF-0.34296028880866425
aF-0.3345323741007194
aF-0.33691756272401435
aF-0.3392857142857143
aF-0.3416370106761566
aF-0.3333333333333333
aF-0.33568904593639576
aF-0.3380281690140845
aF-0.3298245614035088
aF-0.3321678321678322
aF-0.3240418118466899
aF-0.3263888888888889
aF-0.328719723183391
aF-0.3310344827586207
aF-0.3333333333333333
aF-0.3253424657534247
aF-0.33447098976109213
aF-0.336734693877551
aF-0.3389830508474576
aF-0.34121621621621623
aF-0.3333333333333333
aF-0.33557046979865773
aF-0.3277591973244147
aF-0.32
aF-0.3222591362126246
aF-0.32450331125827814
aF-0.31683168316831684
aF-0.3190789473684211
aF-0.3114754098360656
aF-0.30392156862745096
aF-0.2964169381107492
aF-0.2987012987012987
aF-0.30097087378640774
aF-0.3032258064516129
aF-0.3054662379421222
aF-0.3076923076923077
aF-0.3003194888178914
aF-0.30254777070063693
aF-0.3111111111111111
aF-0.3037974683544304
aF-0.305993690851735
aF-0.29874213836477986
aF-0.30094043887147337
aF-0.303125
aF-0.3052959501557632
aF-0.30745341614906835
aF-0.30959752321981426
aF-0.3117283950617284
aF-0.31384615384615383
aF-0.3159509202453988
aF-0.3180428134556575
aF-0.3201219512195122
aF-0.3130699088145897
aF-0.3151515151515151
aF-0.31722054380664655
aF-0.3192771084337349
aF-0.3213213213213213
aF-0.32335329341317365
aF-0.3253731343283582
aF-0.3273809523809524
aF-0.3293768545994065
aF-0.33136094674556216
aF-0.32448377581120946
aF-0.3264705882352941
aF-0.3284457478005865
aF-0.3304093567251462
aF-0.3323615160349854
aF-0.33430232558139533
aF-0.336231884057971
aF-0.33815028901734107
aF-0.3400576368876081
aF-0.34195402298850575
aF-0.3495702005730659
aF-0.3514285714285714
aF-0.35327635327635326
aF-0.35511363636363635
aF-0.35694050991501414
aF-0.3587570621468927
aF-0.36056338028169016
aF-0.3539325842696629
aF-0.3557422969187675
aF-0.3575418994413408
aF-0.35097493036211697
aF-0.3527777777777778
aF-0.3601108033240997
aF-0.36187845303867405
aF-0.36363636363636365
aF-0.36538461538461536
aF-0.36712328767123287
aF-0.36065573770491804
aF-0.36239782016348776
aF-0.3641304347826087
aF-0.35772357723577236
aF-0.35135135135135137
aF-0.3450134770889488
aF-0.3387096774193548
aF-0.34048257372654156
aF-0.3422459893048128
aF-0.336
aF-0.3377659574468085
aF-0.3395225464190981
aF-0.3333333333333333
aF-0.33509234828496043
aF-0.32894736842105265
aF-0.33070866141732286
aF-0.3324607329842932
aF-0.3263707571801567
aF-0.328125
aF-0.32987012987012987
aF-0.3316062176165803
aF-0.3333333333333333
aF-0.33505154639175255
aF-0.32904884318766064
aF-0.33076923076923076
aF-0.33248081841432225
aF-0.33418367346938777
aF-0.33587786259541985
aF-0.3426395939086294
aF-0.3367088607594937
aF-0.33080808080808083
aF-0.3249370277078086
aF-0.32663316582914576
aF-0.3283208020050125
aF-0.3225
aF-0.32418952618453867
aF-0.32587064676616917
aF-0.32754342431761785
aF-0.3292079207920792
aF-0.3234567901234568
aF-0.3251231527093596
aF-0.3194103194103194
aF-0.32107843137254904
aF-0.32273838630806845
aF-0.3170731707317073
aF-0.31143552311435524
aF-0.3131067961165049
aF-0.31476997578692495
aF-0.3164251207729469
aF-0.3180722891566265
aF-0.31971153846153844
aF-0.3213429256594724
aF-0.3229665071770335
aF-0.324582338902148
aF-0.3261904761904762
aF-0.32779097387173395
aF-0.3293838862559242
aF-0.32387706855791965
aF-0.31839622641509435
aF-0.32
aF-0.3145539906103286
aF-0.3161592505854801
aF-0.3177570093457944
aF-0.31934731934731936
aF-0.3209302325581395
aF-0.31554524361948955
aF-0.31712962962962965
aF-0.3117782909930716
aF-0.31336405529953915
aF-0.31494252873563217
aF-0.3165137614678899
aF-0.3180778032036613
aF-0.319634703196347
aF-0.3211845102505695
aF-0.32272727272727275
aF-0.3242630385487528
aF-0.3257918552036199
aF-0.327313769751693
aF-0.32882882882882886
aF-0.3303370786516854
aF-0.33183856502242154
aF-0.32662192393736017
aF-0.3325892857142857
aF-0.33407572383073497
aF-0.33555555555555555
aF-0.34146341463414637
aF-0.3473451327433628
aF-0.3487858719646799
aF-0.3436123348017621
aF-0.3384615384615385
aF-0.3399122807017544
aF-0.3347921225382932
aF-0.3296943231441048
aF-0.3311546840958606
aF-0.33260869565217394
aF-0.3383947939262473
aF-0.3398268398268398
aF-0.3412526997840173
aF-0.3426724137931034
aF-0.33763440860215055
aF-0.33905579399141633
aF-0.3404710920770878
aF-0.3418803418803419
aF-0.34328358208955223
aF-0.3446808510638298
aF-0.346072186836518
aF-0.3411016949152542
aF-0.34249471458773784
aF-0.3438818565400844
aF-0.3389473684210526
aF-0.3403361344537815
aF-0.3417190775681342
aF-0.34309623430962344
aF-0.3444676409185804
aF-0.3458333333333333
aF-0.3471933471933472
aF-0.34232365145228216
aF-0.33747412008281574
aF-0.33884297520661155
aF-0.334020618556701
aF-0.33539094650205764
aF-0.33675564681724846
aF-0.33811475409836067
aF-0.3394683026584867
aF-0.3408163265306122
aF-0.3421588594704684
aF-0.3434959349593496
aF-0.3448275862068966
aF-0.34615384615384615
aF-0.3474747474747475
aF-0.34274193548387094
aF-0.3440643863179074
aF-0.3453815261044177
aF-0.3466933867735471
aF-0.348
aF-0.34930139720558884
aF-0.34462151394422313
aF-0.34592445328031807
aF-0.3472222222222222
aF-0.3485148514851485
aF-0.35375494071146246
aF-0.34911242603550297
aF-0.35039370078740156
aF-0.3516699410609037
aF-0.35294117647058826
aF-0.3542074363992172
aF-0.35546875
aF-0.3567251461988304
aF-0.35797665369649806
aF-0.3592233009708738
aF-0.3546511627906977
aF-0.35589941972920697
aF-0.35714285714285715
aF-0.3583815028901734
aF-0.3596153846153846
aF-0.36084452975047987
aF-0.3563218390804598
aF-0.3575525812619503
aF-0.35877862595419846
aF-0.36
aF-0.35551330798479086
aF-0.3567362428842505
aF-0.35795454545454547
aF-0.3591682419659735
aF-0.35471698113207545
aF-0.3559322033898305
aF-0.35714285714285715
aF-0.35834896810506567
aF-0.3595505617977528
aF-0.36074766355140186
aF-0.35634328358208955
aF-0.3575418994413408
aF-0.3587360594795539
aF-0.35992578849721707
aF-0.3611111111111111
aF-0.3567467652495379
aF-0.35793357933579334
aF-0.35359116022099446
aF-0.3547794117647059
aF-0.3559633027522936
aF-0.3516483516483517
aF-0.35283363802559414
aF-0.354014598540146
aF-0.3551912568306011
aF-0.3563636363636364
aF-0.35208711433756806
aF-0.34782608695652173
aF-0.34900542495479203
aF-0.35018050541516244
aF-0.35135135135135137
aF-0.35251798561151076
aF-0.35368043087971274
aF-0.34946236559139787
aF-0.34525939177101966
aF-0.3464285714285714
aF-0.34759358288770054
aF-0.3487544483985765
aF-0.34991119005328597
aF-0.35106382978723405
aF-0.34690265486725663
aF-0.3480565371024735
aF-0.3492063492063492
aF-0.34507042253521125
aF-0.3462214411247803
aF-0.34210526315789475
aF-0.3432574430823117
aF-0.34440559440559443
aF-0.3403141361256545
aF-0.3362369337979094
aF-0.3373913043478261
aF-0.3385416666666667
aF-0.3396880415944541
aF-0.3408304498269896
aF-0.34196891191709844
aF-0.33793103448275863
aF-0.33907056798623064
aF-0.3402061855670103
aF-0.3361921097770154
aF-0.3373287671232877
aF-0.3333333333333333
aF-0.3293515358361775
aF-0.33049403747870526
aF-0.33163265306122447
aF-0.33276740237691
aF-0.3338983050847458
aF-0.3350253807106599
aF-0.3310810810810811
aF-0.33220910623946037
aF-0.3333333333333333
aF-0.32941176470588235
aF-0.32550335570469796
aF-0.32160804020100503
aF-0.32274247491638797
aF-0.32387312186978295
aF-0.325
aF-0.3211314475873544
aF-0.3222591362126246
aF-0.32338308457711445
aF-0.3195364238410596
aF-0.315702479338843
aF-0.31683168316831684
aF-0.31795716639209226
aF-0.3190789473684211
aF-0.32348111658456485
aF-0.32459016393442625
aF-0.32569558101472995
aF-0.32189542483660133
aF-0.32300163132137033
aF-0.31921824104234525
aF-0.3203252032520325
aF-0.32142857142857145
aF-0.3225283630470016
aF-0.32362459546925565
aF-0.32794830371567046
aF-0.32903225806451614
aF-0.3252818035426731
aF-0.3215434083601286
aF-0.32263242375601925
aF-0.32371794871794873
aF-0.3248
aF-0.3258785942492013
aF-0.3269537480063796
aF-0.32802547770700635
aF-0.32909379968203495
aF-0.33015873015873015
aF-0.3312202852614897
aF-0.33544303797468356
aF-0.33649289099526064
aF-0.33753943217665616
aF-0.33858267716535434
aF-0.33490566037735847
aF-0.3390894819466248
aF-0.3401253918495298
aF-0.3411580594679186
aF-0.3421875
aF-0.34321372854914195
aF-0.3442367601246106
aF-0.3452566096423017
aF-0.34627329192546585
aF-0.34728682170542635
aF-0.34365325077399383
aF-0.3446676970633694
aF-0.3410493827160494
aF-0.3420647149460709
aF-0.3384615384615385
aF-0.33947772657450076
aF-0.34049079754601225
aF-0.33690658499234305
aF-0.3379204892966361
aF-0.33893129770992364
aF-0.3353658536585366
aF-0.3363774733637747
aF-0.33282674772036475
aF-0.3338391502276176
aF-0.3303030303030303
aF-0.3267776096822995
aF-0.32326283987915405
aF-0.32428355957767724
aF-0.3253012048192771
aF-0.3293233082706767
aF-0.3303303303303303
aF-0.3313343328335832
aF-0.3278443113772455
aF-0.32884902840059793
aF-0.32985074626865674
aF-0.33084947839046197
aF-0.3318452380952381
aF-0.3328380386329866
aF-0.33382789317507416
aF-0.3348148148148148
aF-0.33579881656804733
aF-0.33677991137370755
aF-0.3333333333333333
aF-0.33431516936671574
aF-0.33088235294117646
aF-0.33186490455212925
aF-0.33284457478005863
aF-0.33382137628111275
aF-0.3347953216374269
aF-0.33138686131386863
aF-0.3323615160349854
aF-0.3333333333333333
aF-0.33430232558139533
aF-0.3309143686502177
aF-0.3318840579710145
aF-0.33285094066570187
aF-0.3338150289017341
aF-0.33044733044733043
aF-0.3270893371757925
aF-0.3237410071942446
aF-0.32471264367816094
aF-0.32568149210903874
aF-0.32664756446991405
aF-0.33047210300429186
aF-0.3314285714285714
aF-0.33238231098430815
aF-0.3333333333333333
aF-0.33428165007112376
aF-0.3352272727272727
aF-0.33617021276595743
aF-0.33994334277620397
aF-0.33663366336633666
aF-0.3333333333333333
aF-0.3342736248236953
aF-0.33098591549295775
aF-0.32770745428973275
aF-0.32865168539325845
aF-0.32959326788218796
aF-0.33053221288515405
aF-0.33426573426573425
aF-0.33519553072625696
aF-0.3319386331938633
aF-0.3286908077994429
aF-0.325452016689847
aF-0.32222222222222224
aF-0.3231622746185853
aF-0.32409972299168976
aF-0.32088520055325037
aF-0.324585635359116
aF-0.3213793103448276
aF-0.32231404958677684
aF-0.32324621733149933
aF-0.3241758241758242
aF-0.32510288065843623
aF-0.32602739726027397
aF-0.32694938440492477
aF-0.32786885245901637
aF-0.32878581173260574
aF-0.329700272479564
aF-0.32653061224489793
aF-0.327445652173913
aF-0.3310719131614654
aF-0.3319783197831978
aF-0.33558863328822736
aF-0.3364864864864865
aF-0.33738191632928477
aF-0.33827493261455527
aF-0.3391655450874832
aF-0.34274193548387094
aF-0.34630872483221475
aF-0.34316353887399464
aF-0.34404283801874164
aF-0.3449197860962567
aF-0.34579439252336447
aF-0.3466666666666667
aF-0.35019973368841545
aF-0.35106382978723405
aF-0.351925630810093
aF-0.35278514588859416
aF-0.34966887417218545
aF-0.3505291005291005
aF-0.3513870541611625
aF-0.3548812664907652
aF-0.3557312252964427
aF-0.35657894736842105
aF-0.35742444152431013
aF-0.3543307086614173
aF-0.35517693315858456
aF-0.35209424083769636
aF-0.35294117647058826
aF-0.3537859007832898
aF-0.3546284224250326
aF-0.35546875
aF-0.3563068920676203
aF-0.35714285714285715
aF-0.35797665369649806
aF-0.3588082901554404
aF-0.35963777490297544
aF-0.36046511627906974
aF-0.3574193548387097
aF-0.36082474226804123
aF-0.36164736164736166
aF-0.36246786632390743
aF-0.3632862644415918
aF-0.36025641025641025
aF-0.36107554417413573
aF-0.3618925831202046
aF-0.36270753512132825
aF-0.3635204081632653
aF-0.3643312101910828
aF-0.3651399491094148
aF-0.36594663278271916
aF-0.3629441624365482
aF-0.35994930291508237
aF-0.36075949367088606
aF-0.3615676359039191
aF-0.36237373737373735
aF-0.36317780580075665
aF-0.36397984886649876
aF-0.3610062893081761
aF-0.35804020100502515
aF-0.3588456712672522
aF-0.35964912280701755
aF-0.360450563204005
aF-0.36125
aF-0.3620474406991261
aF-0.3628428927680798
aF-0.36363636363636365
aF-0.3644278606965174
aF-0.36149068322981365
aF-0.36228287841191065
aF-0.3630731102850062
aF-0.36386138613861385
aF-0.36093943139678614
aF-0.3617283950617284
aF-0.3625154130702836
aF-0.3633004926108374
aF-0.36039360393603936
aF-0.36117936117936117
aF-0.3619631901840491
aF-0.3627450980392157
aF-0.3598531211750306
aF-0.3606356968215159
aF-0.3614163614163614
aF-0.3646341463414634
aF-0.3617539585870889
aF-0.36253041362530414
aF-0.36330498177399756
aF-0.3640776699029126
aF-0.3612121212121212
aF-0.3619854721549637
aF-0.3591293833131802
aF-0.35990338164251207
aF-0.3606755126658625
aF-0.3578313253012048
aF-0.35499398315282793
aF-0.3557692307692308
aF-0.35294117647058826
aF-0.3537170263788969
aF-0.35449101796407184
aF-0.35526315789473684
aF-0.35603345280764637
aF-0.3532219570405728
aF-0.3539928486293206
aF-0.3547619047619048
aF-0.3555291319857313
aF-0.35629453681710216
aF-0.3570581257413998
aF-0.3578199052132701
aF-0.3585798816568047
aF-0.3557919621749409
aF-0.3565525383707202
aF-0.357311320754717
aF-0.3580683156654888
aF-0.3588235294117647
aF-0.35605170387779084
aF-0.3568075117370892
aF-0.35756154747948415
aF-0.3548009367681499
aF-0.352046783625731
aF-0.352803738317757
aF-0.35355892648774795
aF-0.3508158508158508
aF-0.35157159487776485
aF-0.35232558139534886
aF-0.3530778164924506
aF-0.3503480278422274
aF-0.3511008111239861
aF-0.35185185185185186
aF-0.35260115606936415
aF-0.3533487297921478
aF-0.3506343713956171
aF-0.3513824884792627
aF-0.3521288837744534
aF-0.3528735632183908
aF-0.35361653272101035
aF-0.3543577981651376
aF-0.35738831615120276
aF-0.35469107551487417
aF-0.3554285714285714
aF-0.3527397260273973
aF-0.35347776510832385
aF-0.3542141230068337
aF-0.35494880546075086
aF-0.3522727272727273
aF-0.3530079455164586
aF-0.35034013605442177
aF-0.347678369195923
aF-0.34502262443438914
aF-0.34576271186440677
aF-0.34650112866817157
aF-0.34723788049605414
aF-0.34797297297297297
aF-0.34870641169853767
aF-0.349438202247191
aF-0.3468013468013468
aF-0.3475336322869955
aF-0.3482642777155655
aF-0.348993288590604
aF-0.34972067039106147
aF-0.35044642857142855
aF-0.3511705685618729
aF-0.3518930957683742
aF-0.3526140155728587
aF-0.35
aF-0.3507214206437292
aF-0.35365853658536583
aF-0.35105204872646734
aF-0.34845132743362833
aF-0.34917127071823206
aF-0.3498896247240618
aF-0.3472987872105843
aF-0.3447136563876652
aF-0.34543454345434543
aF-0.34615384615384615
aF-0.3468715697036224
aF-0.3442982456140351
aF-0.34501642935377874
aF-0.3424507658643326
aF-0.34316939890710385
aF-0.3460698689956332
aF-0.3435114503816794
aF-0.3442265795206972
aF-0.34494015233949943
aF-0.3423913043478261
aF-0.34310532030401736
aF-0.3438177874186551
aF-0.3412784398699892
aF-0.341991341991342
aF-0.33945945945945943
aF-0.34017278617710583
aF-0.3408845738942826
aF-0.33836206896551724
aF-0.33907427341227125
aF-0.33978494623655914
aF-0.34049409237379163
aF-0.33798283261802575
aF-0.3386923901393355
aF-0.33940042826552463
aF-0.33689839572192515
aF-0.33760683760683763
aF-0.3383137673425827
aF-0.3390191897654584
aF-0.3397231096911608
aF-0.3404255319148936
aF-0.3379383634431456
aF-0.34076433121019106
aF-0.34358430540827145
aF-0.3442796610169492
aF-0.344973544973545
aF-0.34249471458773784
aF-0.34318901795142553
aF-0.3438818565400844
aF-0.34141201264488935
aF-0.34210526315789475
aF-0.3449001051524711
aF-0.34243697478991597
aF-0.34312696747114374
aF-0.3438155136268344
aF-0.34450261780104713
aF-0.34518828451882844
aF-0.3458725182863114
aF-0.3465553235908142
aF-0.3472367049009385
aF-0.34791666666666665
aF-0.3485952133194589
aF-0.3492723492723493
aF-0.34994807892004154
aF-0.3475103734439834
aF-0.35025906735751294
aF-0.35093167701863354
aF-0.3516028955532575
aF-0.3522727272727273
aF-0.35294117647058826
aF-0.35360824742268043
aF-0.35427394438722964
aF-0.35699588477366256
aF-0.3545734840698869
aF-0.35523613963039014
aF-0.3558974358974359
aF-0.35655737704918034
aF-0.3572159672466735
aF-0.35787321063394684
aF-0.3585291113381001
aF-0.36122448979591837
aF-0.35881753312945974
aF-0.3594704684317719
aF-0.36012207527975587
aF-0.3628048780487805
aF-0.36548223350253806
aF-0.3661257606490872
aF-0.3667679837892604
aF-0.3674089068825911
aF-0.36804853387259856
aF-0.3686868686868687
aF-0.36629667003027244
aF-0.36693548387096775
aF-0.3675730110775428
aF-0.3682092555331992
aF-0.3688442211055276
aF-0.36646586345381527
aF-0.36710130391173523
aF-0.36773547094188375
aF-0.3683683683683684
aF-0.369
aF-0.3696303696303696
aF-0.3722554890219561
aF-0.3728813559322034
aF-0.37350597609561753
aF-0.37412935323383084
aF-0.37475149105367794
aF-0.3753723932472691
aF-0.3759920634920635
aF-0.37661050545094155
aF-0.37425742574257426
aF-0.37487636003956476
aF-0.37549407114624506
aF-0.3761105626850938
aF-0.3767258382642998
aF-0.37733990147783253
aF-0.3779527559055118
aF-0.37561455260570303
aF-0.37328094302554027
aF-0.37389597644749756
aF-0.37450980392156863
aF-0.3751224289911851
aF-0.37573385518590996
aF-0.3763440860215054
aF-0.3740234375
aF-0.3746341463414634
aF-0.3723196881091618
aF-0.37000973709834467
aF-0.36770428015564205
aF-0.3683187560738581
aF-0.36893203883495146
aF-0.36954413191076624
aF-0.3701550387596899
aF-0.3707647628267183
aF-0.3713733075435203
aF-0.3719806763285024
aF-0.37258687258687256
aF-0.37319189971070393
aF-0.3737957610789981
aF-0.3763233878729548
aF-0.3769230769230769
aF-0.37752161383285304
aF-0.3781190019193858
aF-0.37583892617449666
aF-0.3735632183908046
aF-0.3741626794258373
aF-0.37476099426386233
aF-0.3753581661891118
aF-0.37595419847328243
aF-0.3736892278360343
aF-0.3742857142857143
aF-0.3748810656517602
aF-0.3754752851711027
aF-0.3732193732193732
aF-0.3738140417457306
aF-0.3744075829383886
aF-0.375
aF-0.3727530747398297
aF-0.3733459357277883
aF-0.37110481586402266
aF-0.36886792452830186
aF-0.3694627709707823
aF-0.3700564971751412
aF-0.367826904985889
aF-0.3684210526315789
aF-0.36901408450704226
aF-0.36679174484052535
aF-0.3673851921274602
aF-0.36797752808988765
aF-0.3685687558465856
aF-0.3710280373831776
aF-0.3716153127917834
aF-0.37220149253731344
aF-0.3699906803355079
aF-0.37243947858473
aF-0.3730232558139535
aF-0.3736059479553903
aF-0.37418755803156917
aF-0.3747680890538033
aF-0.37256719184430026
aF-0.3731481481481482
aF-0.3737280296022202
aF-0.37153419593345655
aF-0.3721144967682364
aF-0.3699261992619926
aF-0.36774193548387096
aF-0.36556169429097607
aF-0.36614535418583255
aF-0.36672794117647056
aF-0.36455463728191
aF-0.3651376146788991
aF-0.3675527039413382
aF-0.36538461538461536
aF-0.36596523330283626
aF-0.36654478976234006
aF-0.3643835616438356
aF-0.36222627737226276
aF-0.3628076572470374
aF-0.3633879781420765
aF-0.36396724294813465
aF-0.36454545454545456
aF-0.3651226158038147
aF-0.36569872958257715
aF-0.36627379873073435
aF-0.3641304347826087
aF-0.36470588235294116
aF-0.36528028933092227
aF-0.36585365853658536
aF-0.3664259927797834
aF-0.3642921550946799
aF-0.36486486486486486
aF-0.36543654365436545
aF-0.3660071942446043
aF-0.3665768194070081
aF-0.36714542190305205
aF-0.36771300448430494
aF-0.3682795698924731
aF-0.36884512085944493
aF-0.3694096601073345
aF-0.3699731903485255
aF-0.3705357142857143
aF-0.3710972346119536
aF-0.3716577540106952
aF-0.3722172751558326
aF-0.37277580071174377
aF-0.37066666666666664
aF-0.3685612788632327
aF-0.3691215616681455
aF-0.3696808510638298
aF-0.3675819309123118
aF-0.368141592920354
aF-0.3660477453580902
aF-0.3666077738515901
aF-0.36716681376875554
aF-0.36772486772486773
aF-0.3682819383259912
aF-0.36883802816901406
aF-0.36939313984168864
aF-0.36994727592267135
aF-0.3722563652326602
aF-0.37280701754385964
aF-0.3733567046450482
aF-0.37390542907180385
aF-0.37445319335083116
aF-0.375
aF-0.37554585152838427
aF-0.3760907504363002
aF-0.37401918047079336
aF-0.3719512195121951
aF-0.37249782419495214
aF-0.3730434782608696
aF-0.3735881841876629
aF-0.3715277777777778
aF-0.3738074588031223
aF-0.37435008665511266
aF-0.3722943722943723
aF-0.370242214532872
aF-0.3707865168539326
aF-0.37132987910189985
aF-0.36928386540120794
aF-0.36982758620689654
aF-0.37037037037037035
aF-0.3683304647160069
aF-0.3688736027515047
aF-0.3711340206185567
aF-0.37167381974248925
aF-0.37221269296740994
aF-0.37275064267352187
aF-0.3732876712328767
aF-0.37553464499572287
aF-0.37606837606837606
aF-0.3740392826643894
aF-0.37457337883959047
aF-0.3751065643648764
aF-0.3756388415672913
aF-0.37361702127659574
aF-0.3741496598639456
aF-0.3746813933729822
aF-0.37521222410865873
aF-0.3757421543681086
aF-0.376271186440678
aF-0.37849280270956814
aF-0.3790186125211506
aF-0.37700760777683856
aF-0.37753378378378377
aF-0.3755274261603376
aF-0.3760539629005059
aF-0.37657961246840777
aF-0.37457912457912457
aF-0.3725820016820858
aF-0.373109243697479
aF-0.3711167086481948
aF-0.3691275167785235
aF-0.37133277451802177
aF-0.37185929648241206
aF-0.3723849372384937
aF-0.3704013377926421
aF-0.3684210526315789
aF-0.36894824707846413
aF-0.3694745621351126
aF-0.37
aF-0.3680266444629475
aF-0.36605657237936773
aF-0.36658354114713215
aF-0.3687707641196013
aF-0.36929460580912865
aF-0.36981757877280264
aF-0.37033968516984256
aF-0.36837748344370863
aF-0.3664185277088503
aF-0.3685950413223141
aF-0.36911643270024774
aF-0.36716171617161714
aF-0.3676834295136026
aF-0.3657331136738056
aF-0.36790123456790125
aF-0.3684210526315789
aF-0.3689400164338537
aF-0.3694581280788177
aF-0.3675143560295324
aF-0.3680327868852459
aF-0.36855036855036855
aF-0.36661211129296234
aF-0.3671300081766149
aF-0.369281045751634
aF-0.37142857142857144
aF-0.3694942903752039
aF-0.3700081499592502
aF-0.3705211726384365
aF-0.371033360455655
aF-0.37154471544715445
aF-0.37205523964256704
aF-0.37256493506493504
aF-0.37307380373073806
aF-0.373581847649919
aF-0.3740890688259109
aF-0.37216828478964403
aF-0.370250606305578
aF-0.3683360258481422
aF-0.3688458434221146
aF-0.36935483870967745
aF-0.3698630136986301
aF-0.37037037037037035
aF-0.3684633950120676
aF-0.36897106109324757
aF-0.36947791164658633
aF-0.37158908507223115
aF-0.3696872493985565
aF-0.36778846153846156
aF-0.36829463570856685
aF-0.3664
aF-0.3669064748201439
aF-0.36501597444089456
aF-0.3655227454110136
aF-0.36762360446570974
aF-0.36812749003984063
aF-0.3662420382165605
aF-0.3643595863166269
aF-0.3624801271860095
aF-0.36298649722001586
aF-0.3634920634920635
aF-0.36399682791435367
aF-0.36450079239302696
aF-0.36500395882818687
aF-0.36313291139240506
aF-0.36363636363636365
aF-0.3641390205371248
aF-0.36464088397790057
aF-0.3627760252365931
aF-0.3632781717888101
aF-0.36141732283464567
aF-0.35955940204563336
aF-0.360062893081761
aF-0.3605655930871956
aF-0.3626373626373626
aF-0.3631372549019608
aF-0.3652037617554859
aF-0.3657008613938919
aF-0.36384976525821594
aF-0.364347146207975
aF-0.36484375
aF-0.3629976580796253
aF-0.3611544461778471
aF-0.36165237724084176
aF-0.3621495327102804
aF-0.36264591439688715
aF-0.3631415241057543
aF-0.36363636363636365
aF-0.3641304347826087
aF-0.3646237393328161
aF-0.36666666666666664
aF-0.36715724244771497
aF-0.36764705882352944
aF-0.3681361175560712
aF-0.3686244204018547
aF-0.37065637065637064
aF-0.37114197530864196
aF-0.37162683114880496
aF-0.37211093990755006
aF-0.37028483448806776
aF-0.3707692307692308
aF-0.3712528823981553
aF-0.369431643625192
aF-0.3699155794320798
aF-0.370398773006135
aF-0.3708812260536398
aF-0.37136294027565087
aF-0.37184391736801836
aF-0.37232415902140675
aF-0.372803666921314
aF-0.3732824427480916
aF-0.37376048817696417
aF-0.3742378048780488
aF-0.37242955064737243
aF-0.3729071537290715
aF-0.3749049429657795
aF-0.37537993920972645
aF-0.3735763097949886
aF-0.37405159332321697
aF-0.37452615617892343
aF-0.37272727272727274
aF-0.3732021196063588
aF-0.37367624810892586
aF-0.37188208616780044
aF-0.3723564954682779
aF-0.3728301886792453
aF-0.37481146304675717
aF-0.3730218538055765
aF-0.37123493975903615
aF-0.3694507148231753
aF-0.3676691729323308
aF-0.3681442524417731
aF-0.3686186186186186
aF-0.3690922730682671
aF-0.3695652173913043
aF-0.3700374531835206
aF-0.36826347305389223
aF-0.37023186237845923
aF-0.37070254110612855
aF-0.36893203883495146
aF-0.36716417910447763
aF-0.36539895600298283
aF-0.36736214605067063
aF-0.3655994043186895
aF-0.3638392857142857
aF-0.3643122676579926
aF-0.36478454680534916
aF-0.36525612472160357
aF-0.36572700296735905
aF-0.36619718309859156
aF-0.36444444444444446
aF-0.3649148778682457
aF-0.36538461538461536
aF-0.36585365853658536
aF-0.3663220088626292
aF-0.36678966789667894
aF-0.3672566371681416
aF-0.367722918201916
aF-0.36597938144329895
aF-0.36791758646063283
aF-0.3683823529411765
aF-0.36884643644379134
aF-0.3671071953010279
aF-0.3675715333822451
aF-0.3658357771260997
aF-0.3641025641025641
aF-0.3645680819912152
aF-0.3650329188002926
aF-0.3654970760233918
aF-0.36596055514974435
aF-0.36642335766423356
aF-0.36688548504741064
aF-0.3651603498542274
aF-0.36562272396212675
aF-0.3675400291120815
aF-0.3694545454545455
aF-0.3699127906976744
aF-0.37037037037037035
aF-0.37082728592162556
aF-0.37128353879622916
aF-0.3717391304347826
aF-0.3721940622737147
aF-0.37264833574529665
aF-0.37310195227765725
aF-0.375
aF-0.37545126353790614
aF-0.3759018759018759
aF-0.37635183850036047
aF-0.37680115273775217
aF-0.375089992800576
aF-0.37553956834532376
aF-0.37598849748382457
aF-0.3764367816091954
aF-0.3768844221105528
aF-0.3751793400286944
aF-0.3756272401433692
aF-0.37607449856733527
aF-0.376521116678597
aF-0.376967095851216
aF-0.37526804860614726
aF-0.3757142857142857
aF-0.3761598857958601
aF-0.37660485021398005
aF-0.3770491803278688
aF-0.37749287749287747
aF-0.3779359430604982
aF-0.3783783783783784
aF-0.378820184790334
aF-0.37926136363636365
aF-0.3797019162526615
aF-0.38156028368794326
aF-0.38199858256555635
aF-0.3803116147308782
aF-0.3786270346779901
aF-0.37906647807637905
aF-0.3773851590106007
aF-0.3778248587570621
aF-0.37826393789696544
aF-0.37870239774330045
aF-0.37914023960535587
aF-0.3795774647887324
aF-0.3800140745953554
aF-0.37834036568213786
aF-0.3787772312016866
aF-0.3792134831460674
aF-0.37964912280701757
aF-0.3800841514726508
aF-0.3805185704274702
aF-0.38095238095238093
aF-0.3813855843247026
aF-0.3797202797202797
aF-0.3780573025856045
aF-0.3784916201117318
aF-0.37892533147243546
aF-0.3793584379358438
aF-0.3797909407665505
aF-0.3802228412256267
aF-0.38065414057063324
aF-0.3810848400556328
aF-0.38151494093120225
aF-0.3819444444444444
aF-0.3802914642609299
aF-0.38072122052704577
aF-0.38115038115038113
aF-0.37950138504155123
aF-0.37785467128027683
aF-0.37828492392807744
aF-0.37871458189357293
aF-0.380524861878453
aF-0.38095238095238093
aF-0.3813793103448276
aF-0.3818056512749828
aF-0.3822314049586777
aF-0.3826565726083964
aF-0.38308115543328747
aF-0.3835051546391753
aF-0.38392857142857145
aF-0.3822923816060398
aF-0.38271604938271603
aF-0.38313913639479097
aF-0.3835616438356164
aF-0.38193018480492813
aF-0.38372093023255816
aF-0.38414217361585784
aF-0.38456284153005466
aF-0.3849829351535836
aF-0.38335607094133695
aF-0.3837764144512611
aF-0.38419618528610355
aF-0.38461538461538464
aF-0.38503401360544215
aF-0.38545207341944254
aF-0.3858695652173913
aF-0.3862864901561439
aF-0.38670284938941657
aF-0.3871186440677966
aF-0.3875338753387534
aF-0.3879485443466486
aF-0.38633288227334234
aF-0.3867478025693036
aF-0.38513513513513514
aF-0.38555030384875083
aF-0.38394062078272606
aF-0.38233310856372216
aF-0.38409703504043125
aF-0.3824915824915825
aF-0.382907133243607
aF-0.3833221250840619
aF-0.38373655913978494
aF-0.38213566151779715
aF-0.3825503355704698
aF-0.3829644533869886
aF-0.38136729222520105
aF-0.3797722705961152
aF-0.3781793842034806
aF-0.3785953177257525
aF-0.3770053475935829
aF-0.37742150968603877
aF-0.37783711615487314
aF-0.37825216811207474
aF-0.37666666666666665
aF-0.3770819453697535
aF-0.3754993342210386
aF-0.3759148369926813
aF-0.37632978723404253
aF-0.3767441860465116
aF-0.3784860557768924
aF-0.3802256138022561
aF-0.3806366047745358
aF-0.3790589794565938
aF-0.38079470198675497
aF-0.3812045003309067
aF-0.37962962962962965
aF-0.380039656311963
aF-0.380449141347424
aF-0.3808580858085809
aF-0.3812664907651715
aF-0.38167435728411336
aF-0.3820816864295125
aF-0.3824884792626728
aF-0.38092105263157894
aF-0.38132807363576593
aF-0.38173455978975035
aF-0.3821405121470781
aF-0.3838582677165354
aF-0.3855737704918033
aF-0.3859764089121887
aF-0.38637851997380485
aF-0.3867801047120419
aF-0.3871811641595814
aF-0.38758169934640524
aF-0.3892880470280862
aF-0.389686684073107
aF-0.39008480104370513
aF-0.39048239895697523
aF-0.38892508143322474
aF-0.3893229166666667
aF-0.3897202342225114
aF-0.39011703511053314
aF-0.3905133203378817
aF-0.39090909090909093
aF-0.391304347826087
aF-0.39169909208819714
aF-0.39209332469215813
aF-0.39248704663212436
aF-0.39288025889967637
aF-0.39327296248382926
aF-0.3936651583710407
aF-0.39405684754521964
aF-0.394448030987734
aF-0.3929032258064516
aF-0.39329464861379754
aF-0.39368556701030927
aF-0.3940759819703799
aF-0.39253539253539255
aF-0.3929260450160772
aF-0.39331619537275064
aF-0.3917790622992935
aF-0.3921694480102696
aF-0.39255933290570877
aF-0.39294871794871794
aF-0.39333760409993596
aF-0.39372599231754163
aF-0.3921944977607166
aF-0.39258312020460356
aF-0.3929712460063898
aF-0.3933588761174968
aF-0.3937460114869177
aF-0.39221938775510207
aF-0.3906947100063735
aF-0.3910828025477707
aF-0.38956078930617444
aF-0.38994910941475824
aF-0.39033693579148127
aF-0.38881829733163914
aF-0.3892063492063492
aF-0.3895939086294416
aF-0.38998097653772984
aF-0.39036755386565275
aF-0.3907536415452818
aF-0.38924050632911394
aF-0.38962681846932323
aF-0.38811630847029077
aF-0.3885028427037271
aF-0.3888888888888889
aF-0.38738170347003154
aF-0.3858764186633039
aF-0.38626339004410837
aF-0.38476070528967254
aF-0.38514789175582126
aF-0.3855345911949686
aF-0.3859208045254557
aF-0.3863065326633166
aF-0.386691776522285
aF-0.38833124215809284
aF-0.386833855799373
aF-0.38721804511278196
aF-0.3876017532874139
aF-0.3879849812265332
aF-0.38649155722326456
aF-0.386875
aF-0.3872579637726421
aF-0.38764044943820225
aF-0.3880224578914535
aF-0.38840399002493764
aF-0.38691588785046727
aF-0.38729763387297633
aF-0.38767890479153705
aF-0.3880597014925373
aF-0.3884400248601616
aF-0.38881987577639754
aF-0.3891992551210428
aF-0.38957816377171217
aF-0.3899566026038438
aF-0.38847583643122674
aF-0.3888544891640867
aF-0.38923267326732675
aF-0.38961038961038963
aF-0.3899876390605686
aF-0.39036442248301423
aF-0.3907407407407407
aF-0.3892658852560148
aF-0.38964241676942046
aF-0.38817005545286504
aF-0.38854679802955666
aF-0.3870769230769231
aF-0.3874538745387454
aF-0.3878303626306085
aF-0.3882063882063882
aF-0.3867403314917127
aF-0.3871165644171779
aF-0.38565297363580625
aF-0.3860294117647059
aF-0.387630128597673
aF-0.3880048959608323
aF-0.38837920489296635
aF-0.38875305623471884
aF-0.3891264508246793
aF-0.3907203907203907
aF-0.3910921293471629
aF-0.39146341463414636
aF-0.3918342474101158
aF-0.39037758830694275
aF-0.3907486305538649
aF-0.39233576642335766
aF-0.39270516717325227
aF-0.39125151883353587
aF-0.39162112932604737
aF-0.3901699029126214
aF-0.3905397210430564
aF-0.3890909090909091
aF-0.3894609327680194
aF-0.3880145278450363
aF-0.38656987295825773
aF-0.38694074969770254
aF-0.38731117824773414
aF-0.3888888888888889
aF-0.3892576946288473
aF-0.3896260554885404
aF-0.3899939722724533
aF-0.39036144578313253
aF-0.39072847682119205
aF-0.38929001203369434
aF-0.3896572459410704
aF-0.38822115384615385
aF-0.3885885885885886
aF-0.39015606242497
aF-0.3905218956208758
aF-0.3908872901678657
aF-0.39125224685440385
aF-0.3916167664670659
aF-0.39018551765409937
aF-0.39055023923444976
aF-0.3909145248057382
aF-0.3912783751493429
aF-0.39164179104477614
aF-0.39200477326968974
aF-0.3923673225998807
aF-0.39272943980929675
aF-0.3930911256700417
aF-0.39345238095238094
aF-0.39381320642474715
aF-0.3923900118906064
aF-0.3909685086155674
aF-0.3913301662707839
aF-0.3916913946587537
aF-0.39205219454329776
aF-0.3924125666864256
aF-0.3909952606635071
aF-0.3913558318531676
aF-0.39171597633136096
aF-0.39207569485511534
aF-0.39243498817966904
aF-0.3927938570584761
aF-0.39315230224321135
aF-0.391740412979351
aF-0.3920990566037736
aF-0.3924572775486152
aF-0.3928150765606596
aF-0.39434961742201297
aF-0.3947058823529412
aF-0.3950617283950617
aF-0.3936545240893067
aF-0.39224897240164414
aF-0.3926056338028169
aF-0.39296187683284456
aF-0.39331770222743256
aF-0.39191564147627417
aF-0.3905152224824356
aF-0.3908718548858982
aF-0.3912280701754386
aF-0.39158386908240794
aF-0.3919392523364486
aF-0.3922942206654991
aF-0.3938156359393232
aF-0.39416909620991253
aF-0.3945221445221445
aF-0.39487478159580663
aF-0.39522700814901046
aF-0.3955788248981966
aF-0.3959302325581395
aF-0.39628123184195235
aF-0.39663182346109177
aF-0.3969820081253627
aF-0.39559164733178653
aF-0.39710144927536234
aF-0.39571263035921206
aF-0.39722061378112333
aF-0.3975694444444444
aF-0.39791787160208214
aF-0.3965317919075145
aF-0.3968804159445407
aF-0.39549653579676675
aF-0.396999422965955
aF-0.3973471741637832
aF-0.39596541786743517
aF-0.39631336405529954
aF-0.39666090961427747
aF-0.3970080552359033
aF-0.39735480161012077
aF-0.39770114942528734
aF-0.39632395175186674
aF-0.3949483352468427
aF-0.3952954675846242
aF-0.39392201834862384
aF-0.394269340974212
aF-0.3928980526918671
aF-0.39324556382369774
aF-0.39359267734553777
aF-0.3922241280731847
aF-0.39257142857142857
aF-0.39291833238149626
aF-0.3932648401826484
aF-0.39189960068454077
aF-0.3922462941847206
aF-0.3925925925925926
aF-0.3929384965831435
aF-0.39328400682982356
aF-0.3919226393629124
aF-0.3922683342808414
aF-0.3926136363636364
aF-0.3929585462805224
aF-0.39160045402951194
aF-0.3902439024390244
aF-0.3888888888888889
aF-0.38923512747875355
aF-0.3895809739524349
aF-0.388228636106395
aF-0.38857466063348417
aF-0.38892029395138494
aF-0.38926553672316383
aF-0.38961038961038963
aF-0.3899548532731377
aF-0.39029892836999436
aF-0.3906426155580609
aF-0.38929577464788734
aF-0.39076576576576577
aF-0.3911086100168824
aF-0.38976377952755903
aF-0.3912310286677909
aF-0.39157303370786517
aF-0.3902302077484559
aF-0.3888888888888889
aF-0.3892316320807628
aF-0.38789237668161436
aF-0.3865546218487395
aF-0.38689809630459127
aF-0.387241186345831
aF-0.3875838926174497
aF-0.3879262157629961
aF-0.388268156424581
aF-0.3869346733668342
aF-0.3872767857142857
aF-0.38761851645287226
aF-0.3879598662207358
aF-0.3883008356545961
aF-0.388641425389755
aF-0.38731218697829717
aF-0.38765294771968856
aF-0.3879933296275709
aF-0.3883333333333333
aF-0.3886729594669628
aF-0.3890122086570477
aF-0.389351081530782
aF-0.38802660753880264
aF-0.3883656509695291
aF-0.38704318936877075
aF-0.387382401770891
aF-0.38882743362831856
aF-0.38916528468767275
aF-0.38950276243093923
aF-0.3898398674765323
aF-0.3901766004415011
aF-0.39051296194153334
aF-0.3908489525909592
aF-0.39118457300275483
aF-0.3915198237885463
aF-0.3918547055586131
aF-0.3921892189218922
aF-0.3925233644859813
aF-0.39285714285714285
aF-0.3915431081823174
aF-0.3918770581778266
aF-0.39056500274273176
aF-0.39089912280701755
aF-0.39123287671232876
aF-0.39156626506024095
aF-0.3918992884510126
aF-0.39223194748358864
aF-0.39256424275560414
aF-0.39289617486338796
aF-0.3932277444019661
aF-0.3935589519650655
aF-0.392253136933988
aF-0.3925845147219193
aF-0.39291553133514984
aF-0.39161220043572986
aF-0.391943385955362
aF-0.39227421109902066
aF-0.3926046764545949
aF-0.39293478260869563
aF-0.3916349809885932
aF-0.3919652551574376
aF-0.3922951709169832
aF-0.3926247288503254
aF-0.39295392953929537
aF-0.39328277356446373
aF-0.3936112615051435
aF-0.3939393939393939
aF-0.3942671714440238
aF-0.39297297297297296
aF-0.39168017287952456
aF-0.39200863930885527
aF-0.39233675121424716
aF-0.3926645091693635
aF-0.3913746630727763
aF-0.3917025862068966
aF-0.39041464728056
aF-0.3907427341227126
aF-0.3921463152232383
aF-0.3924731182795699
aF-0.39279957012358946
aF-0.39312567132116005
aF-0.39184111647879766
aF-0.39216738197424894
aF-0.39249329758713136
aF-0.3928188638799571
aF-0.39314408141403323
aF-0.3945396145610278
aF-0.39325842696629215
aF-0.39197860962566844
aF-0.39230358097274187
aF-0.3936965811965812
aF-0.39402028830752805
aF-0.39434364994663823
aF-0.3930666666666667
aF-0.39339019189765456
aF-0.39211507725093236
aF-0.3924387646432375
aF-0.39116551357104845
aF-0.39148936170212767
aF-0.3902179691653376
aF-0.39054197662061635
aF-0.38927243759957514
aF-0.3895966029723992
aF-0.3883289124668435
aF-0.3886532343584305
aF-0.38897721250662426
aF-0.3893008474576271
aF-0.3896241397564849
aF-0.38994708994708993
aF-0.39132734003172925
aF-0.3916490486257928
aF-0.39197041732699417
aF-0.39229144667370647
aF-0.39261213720316623
aF-0.3939873417721519
aF-0.39430680021085923
aF-0.39304531085353
aF-0.3933649289099526
aF-0.39210526315789473
aF-0.3924250394529195
aF-0.39274447949526814
aF-0.3930635838150289
aF-0.39338235294117646
aF-0.3937007874015748
aF-0.39401888772298005
aF-0.39433665443104354
aF-0.3946540880503145
aF-0.39497118910424306
aF-0.39528795811518325
aF-0.3956043956043956
aF-0.3959205020920502
aF-0.3962362780972295
aF-0.39655172413793105
aF-0.3968668407310705
aF-0.39822546972860123
aF-0.3985393844548774
aF-0.3988529718456726
aF-0.3976029181865555
aF-0.3963541666666667
aF-0.39770952628839146
aF-0.39906347554630595
aF-0.3993759750390016
aF-0.3981288981288981
aF-0.3968831168831169
aF-0.39823468328141226
aF-0.3985469641930462
aF-0.39885892116182575
aF-0.4002073613271125
aF-0.39896373056994816
aF-0.39927498705334025
aF-0.3995859213250518
aF-0.3998965338851526
aF-0.40020682523267836
aF-0.4005167958656331
aF-0.40082644628099173
aF-0.399586990191017
aF-0.39989680082559337
aF-0.4002062919030428
aF-0.4005154639175258
aF-0.40082431736218443
aF-0.40113285272914523
aF-0.39989706639217704
aF-0.3986625514403292
aF-0.3974293059125964
aF-0.3977389516957862
aF-0.3980482794042116
aF-0.39835728952772076
aF-0.3986659825551565
aF-0.4
aF-0.40030753459764223
aF-0.399077868852459
aF-0.39938556067588327
aF-0.39969293756397134
aF-0.4
aF-0.3987730061349693
aF-0.39908022483392946
aF-0.39938712972420837
aF-0.3996937212863706
aF-0.39846938775510204
aF-0.39877613462519124
aF-0.39908256880733944
aF-0.3978604177279674
aF-0.3981670061099796
aF-0.3984732824427481
aF-0.3987792472024415
aF-0.3990849008642603
aF-0.3978658536585366
aF-0.39664804469273746
aF-0.39695431472081216
aF-0.3982749873160832
aF-0.39858012170385393
aF-0.3998986315255955
aF-0.39868287740628167
aF-0.4
aF-0.40030364372469635
aF-0.4006069802731411
aF-0.40091001011122346
aF-0.4012127337038909
aF-0.4
aF-0.40030287733467945
aF-0.3990918264379415
aF-0.3978819969742814
aF-0.3966733870967742
aF-0.3969773299748111
aF-0.3957703927492447
aF-0.3945646703573226
aF-0.3933601609657948
aF-0.3936651583710407
aF-0.39396984924623113
aF-0.3942742340532396
aF-0.3930722891566265
aF-0.3933768188660311
aF-0.3936810431293882
aF-0.39398496240601505
aF-0.3927855711422846
aF-0.3930896344516775
aF-0.3933933933933934
aF-0.3936968484242121
aF-0.394
aF-0.39430284857571213
aF-0.3946053946053946
aF-0.3934098851722416
aF-0.3937125748502994
aF-0.3940149625935162
aF-0.39431704885343966
aF-0.3931240657698057
aF-0.3934262948207171
aF-0.39372822299651566
aF-0.3940298507462687
aF-0.39532570860268523
aF-0.3956262425447316
aF-0.395926477893691
aF-0.39622641509433965
aF-0.3965260545905707
aF-0.3968253968253968
aF-0.3971244422409519
aF-0.39742319127849357
aF-0.3977216443784051
aF-0.39801980198019804
aF-0.3983176645225136
aF-0.39861523244312563
aF-0.39891250617894214
aF-0.39920948616600793
aF-0.3995061728395062
aF-0.3998025666337611
aF-0.40009866798223975
aF-0.3989151873767258
aF-0.3992114342040414
aF-0.39950738916256157
aF-0.3983259478089611
aF-0.3986220472440945
aF-0.397442203639941
aF-0.3977384464110128
aF-0.399017199017199
aF-0.3993123772102161
aF-0.39813451153657337
aF-0.39842983316977426
aF-0.3997057381069152
aF-0.4
aF-0.40029397354238117
aF-0.4015670910871694
aF-0.4018600097895252
aF-0.4006849315068493
aF-0.4019559902200489
aF-0.4022482893450635
aF-0.4025403028822667
aF-0.40283203125
aF-0.40165934602244996
aF-0.4004878048780488
aF-0.4007801072647489
aF-0.4010721247563353
aF-0.40136385776911837
aF-0.40165530671859784
aF-0.4019464720194647
aF-0.4022373540856031
aF-0.40106951871657753
aF-0.3999028182701652
aF-0.40019426906265176
aF-0.40048543689320387
aF-0.40077632217370207
aF-0.4010669253152279
aF-0.40135724672806594
aF-0.4016472868217054
aF-0.4019370460048426
aF-0.40077444336882867
aF-0.3996129656507015
aF-0.39990328820116056
aF-0.4001933301111648
aF-0.39903381642512076
aF-0.3993239980685659
aF-0.3996138996138996
aF-0.39990352146647373
aF-0.40019286403085824
aF-0.4004819277108434
aF-0.39932562620423895
aF-0.3996148290804044
aF-0.39990375360923963
aF-0.4001924001924002
aF-0.40048076923076925
aF-0.399327246516098
aF-0.39817483189241115
aF-0.39702352376380223
aF-0.39731285988483683
aF-0.3976019184652278
aF-0.39789069990412274
aF-0.3981792045999042
aF-0.39846743295019155
aF-0.39875538535184296
aF-0.39760765550239235
aF-0.397895743663319
aF-0.39818355640535374
aF-0.39847109412326803
aF-0.3997134670487106
aF-0.4
aF-0.3988549618320611
aF-0.39914163090128757
aF-0.3994280266920877
aF-0.3982848975702716
aF-0.3985714285714286
aF-0.398857686815802
aF-0.39914367269267365
aF-0.3980028530670471
aF-0.3982889733840304
aF-0.3985748218527316
aF-0.3974358974358974
aF-0.39629805410536306
aF-0.3951612903225806
aF-0.3940256045519203
aF-0.3943127962085308
aF-0.39459971577451447
aF-0.3934659090909091
aF-0.39233317557974445
aF-0.39120151371807
aF-0.39148936170212767
aF-0.39177693761814747
aF-0.3920642418516769
aF-0.3909348441926346
aF-0.39216611609249646
aF-0.39245283018867927
aF-0.3927392739273927
aF-0.3930254476908577
aF-0.39331135186057464
aF-0.3921845574387947
aF-0.3924705882352941
aF-0.3913452492944497
aF-0.3916314057357781
aF-0.3919172932330827
aF-0.3922029121653358
aF-0.39342723004694835
aF-0.39230408259033317
aF-0.3925891181988743
aF-0.3928738865447726
aF-0.3931583880037488
aF-0.39344262295081966
aF-0.3937265917602996
aF-0.3940102948058025
aF-0.39429373246024324
aF-0.3945769050958392
aF-0.39485981308411217
aF-0.3951424567958898
aF-0.39402427637721754
aF-0.3943070461969202
aF-0.3931902985074627
aF-0.39207459207459205
aF-0.3923578751164958
aF-0.3926408942710759
aF-0.3929236499068901
aF-0.3932061423918101
aF-0.39348837209302323
aF-0.39377033937703393
aF-0.3940520446096654
aF-0.3943334881560613
aF-0.39322191272052
aF-0.39211136890951276
aF-0.3910018552875696
aF-0.38989337042188227
aF-0.3911028730305839
aF-0.3899953682260306
aF-0.3902777777777778
aF-0.3905599259602036
aF-0.3894542090656799
aF-0.3897364771151179
aF-0.3900184842883549
aF-0.3903002309468822
aF-0.3915050784856879
aF-0.39178587909552376
aF-0.39206642066420666
aF-0.39234670355002305
aF-0.3935483870967742
aF-0.3924458774758176
aF-0.39134438305709024
aF-0.3916244822825587
aF-0.39190432382704693
aF-0.392183908045977
aF-0.39338235294117646
aF-0.39366100137804316
aF-0.3939393939393939
aF-0.3942175309775126
aF-0.3944954128440367
aF-0.39339752407152684
aF-0.3936755270394134
aF-0.39395327530920754
aF-0.39285714285714285
aF-0.3931350114416476
aF-0.3934126258005489
aF-0.3936899862825789
aF-0.3939670932358318
aF-0.3942439470077661
aF-0.39452054794520547
aF-0.3934276586033775
aF-0.3937043795620438
aF-0.39398084815321477
aF-0.39425706472196903
aF-0.39453302961275627
aF-0.3948087431693989
aF-0.39371870732817477
aF-0.3939945404913558
aF-0.3942701227830832
aF-0.39454545454545453
aF-0.3948205361199455
aF-0.39509536784741145
aF-0.39536995006808895
aF-0.3956442831215971
aF-0.3945578231292517
aF-0.3948322756119674
aF-0.3951064793837789
aF-0.39402173913043476
aF-0.3942960615663196
aF-0.3932126696832579
aF-0.3921302578018996
aF-0.3924050632911392
aF-0.3913239945774966
aF-0.3915989159891599
aF-0.39187358916478554
aF-0.39214801444043323
aF-0.3910690121786198
aF-0.38999098286744815
aF-0.39026588553402436
aF-0.39054054054054055
aF-0.39081494822152185
aF-0.38973897389738976
aF-0.3900134952766532
aF-0.3902877697841727
aF-0.39146067415730335
aF-0.3917340521114106
aF-0.3920071845532106
aF-0.39228007181328545
aF-0.39120681920143563
aF-0.3914798206278027
aF-0.3917525773195876
aF-0.3920250896057348
aF-0.3909538737124944
aF-0.39122649955237243
aF-0.39149888143176736
aF-0.39177101967799643
aF-0.39293696915511844
aF-0.3932082216264522
aF-0.3934792317999107
aF-0.3924107142857143
aF-0.392681838464971
aF-0.39295272078501337
aF-0.39188586714222023
aF-0.3908199643493761
aF-0.3910913140311804
aF-0.39136242208370436
aF-0.3916332888295505
aF-0.3919039145907473
aF-0.39084037349933304
aF-0.39111111111111113
aF-0.3922701021768103
aF-0.39120781527531084
aF-0.3914780292942743
aF-0.3904170363797693
aF-0.39068736141906873
aF-0.3896276595744681
aF-0.3898980948161276
aF-0.39016829052258634
aF-0.3904382470119522
aF-0.39070796460176993
aF-0.3918620079610792
aF-0.392130857648099
aF-0.3910737958462218
aF-0.39001766784452296
aF-0.3902869757174393
aF-0.39055604589585174
aF-0.39082487869430965
aF-0.39109347442680775
aF-0.39136183340678715
aF-0.39162995594713657
aF-0.39189784236019376
aF-0.3908450704225352
aF-0.39111306643202814
aF-0.3913808267370273
aF-0.39164835164835166
aF-0.39191564147627417
aF-0.3921826965305226
aF-0.3924495171202809
aF-0.39271610355419045
aF-0.3929824561403509
aF-0.3941253836036826
aF-0.39307624890446974
aF-0.39334209373631185
aF-0.3922942206654991
aF-0.3925601750547046
aF-0.39282589676290464
aF-0.3930913860953214
aF-0.39335664335664333
aF-0.3923110528615116
aF-0.39126637554585153
aF-0.3915320820602357
aF-0.39179755671902267
aF-0.39206279982555603
aF-0.3923278116826504
aF-0.3934640522875817
aF-0.39372822299651566
aF-0.39268611232041795
aF-0.39295039164490864
aF-0.39190952588081773
aF-0.39217391304347826
aF-0.3924380704041721
aF-0.39139878366637704
aF-0.39166304819800263
aF-0.3919270833333333
aF-0.39219088937093277
aF-0.3924544666088465
aF-0.39271781534460337
aF-0.39168110918544197
aF-0.39064530099610223
aF-0.39090909090909093
aF-0.3911726525313717
aF-0.3914359861591695
aF-0.39169909208819714
aF-0.391961970613656
aF-0.39092872570194387
aF-0.3911917098445596
aF-0.3914544669831679
aF-0.3917169974115617
aF-0.39197930142302717
aF-0.3922413793103448
aF-0.39250323136579063
aF-0.39276485788113696
aF-0.3917348256564787
aF-0.39199655765920827
aF-0.3909677419354839
aF-0.3899398108340499
aF-0.3902019767941556
aF-0.3913230240549828
aF-0.39158437097466725
aF-0.39184549356223175
aF-0.39296439296439295
aF-0.3932246998284734
aF-0.3934847835405058
aF-0.39374464438731793
aF-0.39400428265524623
aF-0.3929794520547945
aF-0.39323919554985026
aF-0.39221556886227543
aF-0.39247541684480547
aF-0.3927350427350427
aF-0.3929944468175993
aF-0.3919726729291204
aF-0.39223218096457535
aF-0.3924914675767918
aF-0.3936034115138593
aF-0.3938618925831202
aF-0.3928419258628036
aF-0.39310051107325383
aF-0.3933588761174968
aF-0.3923404255319149
aF-0.3925988940876223
aF-0.39158163265306123
aF-0.3905652358691033
aF-0.39082412914188613
aF-0.3910828025477707
aF-0.39134125636672323
aF-0.3903266864658464
aF-0.3905852417302799
aF-0.39084357778719797
aF-0.39110169491525426
aF-0.3900889453621347
aF-0.3903471634208298
aF-0.38933559035124843
aF-0.3904399323181049
aF-0.39069767441860465
aF-0.39095519864750633
aF-0.38994507815800594
aF-0.3902027027027027
aF-0.38919375263824396
aF-0.3881856540084388
aF-0.3871784057359764
aF-0.3874367622259696
aF-0.38769490096923725
aF-0.3879528222409436
aF-0.38821052631578945
aF-0.38846801346801346
aF-0.3887252839713925
aF-0.38898233809924304
aF-0.38923917612442205
aF-0.38823529411764707
aF-0.3884922301553969
aF-0.3895885810243493
aF-0.38984473352916493
aF-0.3888422818791946
aF-0.3890985324947589
aF-0.38935456831517185
aF-0.38961038961038963
aF-0.3898659966499162
aF-0.3901213897028045
aF-0.3903765690376569
aF-0.39063153492262653
aF-0.39088628762541805
aF-0.3898871709151692
aF-0.39014202172096907
aF-0.3903966597077244
aF-0.39065108514190316
aF-0.3896537338339591
aF-0.38990825688073394
aF-0.3909962484368487
aF-0.39125
aF-0.3902540608079967
aF-0.39050791007493757
aF-0.39076154806491886
aF-0.3910149750415973
aF-0.3912681912681913
aF-0.3915211970074813
aF-0.3917739925218114
aF-0.3920265780730897
aF-0.39227895392278955
aF-0.3925311203319502
aF-0.3927830775611779
aF-0.3917910447761194
aF-0.3907998342312474
aF-0.38980944490472247
aF-0.38881987577639754
aF-0.3890728476821192
aF-0.3893256102606537
aF-0.3883374689826303
aF-0.38859032658123194
aF-0.3888429752066116
aF-0.38909541511771994
aF-0.3893476465730801
aF-0.3904250928600908
aF-0.39067656765676567
aF-0.3909278350515464
aF-0.3911788953009068
aF-0.3901936547177586
aF-0.3904448105436573
aF-0.38946068340881024
aF-0.388477366255144
aF-0.38872891814068283
aF-0.38898026315789475
aF-0.3892314015618578
aF-0.3882497945768283
aF-0.3885010266940452
aF-0.38752052545155996
aF-0.38654082888797703
aF-0.3867924528301887
aF-0.38704387043870436
aF-0.3860655737704918
aF-0.38631708316263824
aF-0.38656838656838655
aF-0.3868194842406877
aF-0.38707037643207853
aF-0.38732106339468303
aF-0.3875715453802126
aF-0.38863914997956683
aF-0.38766339869281047
aF-0.38791343405471623
aF-0.38816326530612244
aF-0.3884128926968584
aF-0.38866231647634586
aF-0.38768854463921726
aF-0.38793806030969846
aF-0.38818737270875764
aF-0.38843648208469056
aF-0.38746438746438744
aF-0.38771358828315705
aF-0.3879625864172428
aF-0.38902439024390245
aF-0.3900853311661926
aF-0.3891145410235581
aF-0.38814453917986197
aF-0.38839285714285715
aF-0.38864097363083167
aF-0.3888888888888889
aF-0.3891366031617349
aF-0.39019448946515395
aF-0.3892264074524099
aF-0.3894736842105263
aF-0.38972076082557666
aF-0.38996763754045305
aF-0.39021431459765465
aF-0.3904607922392886
aF-0.3907070707070707
aF-0.39095315024232635
aF-0.39119903108599113
aF-0.3922518159806295
aF-0.3924969745865268
aF-0.392741935483871
aF-0.39298669891172916
aF-0.39323126510878326
aF-0.39347563431333066
aF-0.39371980676328505
aF-0.39396378269617705
aF-0.39420756234915527
aF-0.3944511459589867
aF-0.3946945337620579
aF-0.3937324226597027
aF-0.39397590361445783
aF-0.3942191890806905
aF-0.39446227929373995
aF-0.394705174488568
aF-0.3937449879711307
aF-0.3939879759519038
aF-0.3942307692307692
aF-0.39447336804165
aF-0.3947157726180945
aF-0.3937575030012005
aF-0.394
aF-0.3942423030787685
aF-0.39448441247002397
aF-0.39472632840591293
aF-0.39496805111821087
aF-0.39520958083832336
aF-0.3954509177972865
aF-0.39648982848025527
aF-0.3967304625199362
aF-0.39776803507373454
aF-0.398804780876494
aF-0.39984070091596974
aF-0.4000796178343949
aF-0.4003183446080382
aF-0.39936356404136836
aF-0.3996023856858847
aF-0.3998410174880763
aF-0.4000794596742153
aF-0.40031771247021447
aF-0.4005557761016276
aF-0.4007936507936508
aF-0.40103133677112257
aF-0.40007930214115783
aF-0.4003170828378914
aF-0.4013470681458003
aF-0.4003960396039604
aF-0.4006334125098971
aF-0.40087059754649784
aF-0.40110759493670883
aF-0.4013444049031238
aF-0.4015810276679842
aF-0.40181746345318053
aF-0.40086887835703
aF-0.4011054086063956
aF-0.40015785319652725
aF-0.40039447731755423
aF-0.40063091482649843
aF-0.4008671659440284
aF-0.40110323089046496
aF-0.4013391098857818
aF-0.40039370078740155
aF-0.4014167650531287
aF-0.4016522423288749
aF-0.4018875344081793
aF-0.40212264150943394
aF-0.4011787819253438
aF-0.4002356637863315
aF-0.3992932862190813
aF-0.39952904238618525
aF-0.39858768144370343
aF-0.3996078431372549
aF-0.39984319874559
aF-0.40007836990595613
aF-0.40031335683509595
aF-0.4005481597494127
aF-0.40078277886497066
aF-0.40179968701095464
aF-0.4020336331638639
aF-0.40226739640344017
aF-0.4013286440015631
aF-0.4015625
aF-0.4017961733697774
aF-0.4020296643247463
aF-0.40226297307842374
aF-0.40249609984399376
aF-0.402729044834308
aF-0.4029618082618862
aF-0.4020257109466303
aF-0.40109034267912774
aF-0.4001557026080187
aF-0.4003891050583658
aF-0.40062232594321273
aF-0.40085536547433903
aF-0.4010882238631947
aF-0.40015540015540013
aF-0.4003883495145631
aF-0.40062111801242234
aF-0.3996895615056267
aF-0.399922420480993
aF-0.40015509887553313
aF-0.4003875968992248
aF-0.3994575745834948
aF-0.39852827265685514
aF-0.3975996902826171
aF-0.39667182662538697
aF-0.39690522243713733
aF-0.397138437741686
aF-0.3962118283726324
aF-0.3952859350850077
aF-0.3943607570490537
aF-0.3945945945945946
aF-0.39367039752991123
aF-0.3939043209876543
aF-0.39413806401851137
aF-0.3943716268311488
aF-0.3946050096339114
aF-0.3948382126348228
aF-0.39507123604158645
aF-0.39530408006158585
aF-0.39553674490188534
aF-0.39576923076923076
aF-0.39600153787005
aF-0.3962336664104535
aF-0.39646561659623514
aF-0.3966973886328725
aF-0.39692898272552785
aF-0.39792785878741366
aF-0.39815880322209435
aF-0.39838957055214724
aF-0.3986201609812189
aF-0.39770114942528734
aF-0.3979318268862505
aF-0.39701378254211334
aF-0.39724454649827784
aF-0.396327467482785
aF-0.3965583173996176
aF-0.3967889908256881
aF-0.39701948796331676
aF-0.3961038961038961
aF-0.3963344788087056
aF-0.39541984732824426
aF-0.39565051507058374
aF-0.39588100686498856
aF-0.3949675943576058
aF-0.3940548780487805
aF-0.39504761904761904
aF-0.3952779893373953
aF-0.3955081842405786
aF-0.395738203957382
aF-0.39482693039178396
aF-0.39505703422053234
aF-0.395286963131889
aF-0.395516717325228
aF-0.3946069122673756
aF-0.39483675018982534
aF-0.3950664136622391
aF-0.3952959028831563
aF-0.3955252180508153
aF-0.3957543593631539
aF-0.39598332701780975
aF-0.3950757575757576
aF-0.394168875425975
aF-0.39326267978803936
aF-0.39349224366250474
aF-0.39372163388804843
aF-0.39281663516068055
aF-0.3930461073318216
aF-0.393275406120136
aF-0.3935045317220544
aF-0.39373348433371086
aF-0.3939622641509434
aF-0.3941908713692946
aF-0.39441930618401205
aF-0.394647568790049
aF-0.3948756593820648
aF-0.3951035781544256
aF-0.3953313253012048
aF-0.3944298080541965
aF-0.39541008276899925
aF-0.3945092139902219
aF-0.39360902255639096
aF-0.393836903419767
aF-0.3948159278737791
aF-0.3950431843785205
aF-0.39414414414414417
aF-0.3943714821763602
aF-0.3945986496624156
aF-0.3948256467941507
aF-0.3950524737631184
aF-0.39527913076058446
aF-0.3943820224719101
aF-0.3934855859228753
aF-0.3925898203592814
aF-0.39281705948372614
aF-0.3930441286462229
aF-0.3932710280373832
aF-0.39349775784753366
aF-0.3937243182667165
aF-0.3939507094846901
aF-0.393057110862262
aF-0.3921641791044776
aF-0.39127191346512497
aF-0.39149888143176736
aF-0.39172568020872156
aF-0.3908345752608048
aF-0.39106145251396646
aF-0.3901712583767684
aF-0.38928172683289913
aF-0.38950892857142855
aF-0.38862030494607663
aF-0.38884758364312266
aF-0.3890746934225195
aF-0.38930163447251115
aF-0.389528406981062
aF-0.388641425389755
aF-0.3877551020408163
aF-0.3879821958456973
aF-0.3882091212458287
aF-0.38843587842846555
aF-0.3886624675805854
aF-0.3888888888888889
aF-0.38911514253980006
aF-0.3893412287194671
aF-0.3895671476137625
aF-0.38979289940828404
aF-0.3900184842883549
aF-0.38913525498891355
aF-0.3893609161433321
aF-0.3895864106351551
aF-0.38870431893687707
aF-0.388929889298893
aF-0.38915529324972337
aF-0.3893805309734513
aF-0.38849981570217473
aF-0.38872512896094324
aF-0.3889502762430939
aF-0.38917525773195877
aF-0.3894000736105999
aF-0.38962472406181015
aF-0.38874586244942994
aF-0.3889705882352941
aF-0.38919514884233736
aF-0.3894195444526084
aF-0.38964377524788835
aF-0.3898678414096916
aF-0.3889908256880734
aF-0.3892149669845928
aF-0.38833883388338836
aF-0.3874633431085044
aF-0.3876877977281055
aF-0.3879120879120879
aF-0.3881362138410839
aF-0.3883601756954612
aF-0.3885839736553238
aF-0.38880760790051205
aF-0.38903107861060326
aF-0.3892543859649123
aF-0.38947753014249176
aF-0.38970051132213296
aF-0.3899233296823658
aF-0.39087591240875913
aF-0.39109813936519516
aF-0.3913202042304887
aF-0.3915421071819176
aF-0.39176384839650147
aF-0.39198542805100184
aF-0.3922068463219228
aF-0.3924281033855115
aF-0.3926491994177584
aF-0.39287013459439796
aF-0.3930909090909091
aF-0.39331152308251544
aF-0.39244186046511625
aF-0.392662549945514
aF-0.39288307915758897
aF-0.3931034482758621
aF-0.39332365747460085
aF-0.39245556764599204
aF-0.39158810732414795
aF-0.39180862631388186
aF-0.39202898550724635
aF-0.3922491850778703
aF-0.3924692251991311
aF-0.3926891060441549
aF-0.39290882778581765
aF-0.39204339963833634
aF-0.3929862617498192
aF-0.3921214311528731
aF-0.39234104046242774
aF-0.39256049115204045
aF-0.3927797833935018
aF-0.39372067845543124
aF-0.3939393939393939
aF-0.3941579516768842
aF-0.39509733237202593
aF-0.39531531531531533
aF-0.39553314121037464
aF-0.39575081022686354
aF-0.3959683225341973
aF-0.3951061532925513
aF-0.3942446043165468
aF-0.3944624235886372
aF-0.3946800862688713
aF-0.3938196191160618
aF-0.39403735632183906
aF-0.39425493716337523
aF-0.39339554917444364
aF-0.39361320416218154
aF-0.3938307030129125
aF-0.39297239153818575
aF-0.3931899641577061
aF-0.3934073808670727
aF-0.3936246418338109
aF-0.3938417472252059
aF-0.3947745168217609
aF-0.39499105545617175
aF-0.3952074391988555
aF-0.39542366821594566
aF-0.3956397426733381
aF-0.39585566273669165
aF-0.3960714285714286
aF-0.39628704034273476
aF-0.39650249821556033
aF-0.39743132358187655
aF-0.39764621968616265
aF-0.39786096256684494
aF-0.39807555238774056
aF-0.3982899893124332
aF-0.3974358974358974
aF-0.3976504093983624
aF-0.39786476868327403
aF-0.39807897545357523
aF-0.39829302987197723
aF-0.39850693210095983
aF-0.3976545842217484
aF-0.3978685612788632
aF-0.39808238636363635
aF-0.3972310969116081
aF-0.397444996451384
aF-0.39659453706988296
aF-0.39680851063829786
aF-0.3970223325062035
aF-0.3972360028348689
aF-0.39744952178533477
aF-0.3976628895184136
aF-0.3968141592920354
aF-0.3970276008492569
aF-0.3979483551467987
aF-0.39710042432814713
aF-0.39731353835277483
aF-0.39752650176678445
aF-0.39773931472977747
aF-0.3979519774011299
aF-0.3971055418284504
aF-0.39625970359915313
aF-0.39647266313932983
aF-0.39562764456981664
aF-0.39478322171307717
aF-0.3949964763918252
aF-0.39520958083832336
aF-0.39436619718309857
aF-0.3945793734600493
aF-0.3947923997185081
aF-0.3939500527611678
aF-0.3941631504922644
aF-0.3943760984182777
aF-0.3945888966971188
aF-0.394801545486477
aF-0.3950140449438202
aF-0.3941733941733942
aF-0.39438596491228073
aF-0.39459838653104173
aF-0.3955119214586255
aF-0.3957237995092885
aF-0.3959355290819902
aF-0.3961471103327496
aF-0.3963585434173669
aF-0.39551977598879945
aF-0.3946815955213436
aF-0.39489331934242744
aF-0.3951048951048951
aF-0.3942677385529535
aF-0.3944793850454228
aF-0.3946908836884387
aF-0.3949022346368715
aF-0.39406631762652705
aF-0.39427773900907187
aF-0.3944890129054761
aF-0.3936541143654114
aF-0.3938654583478564
aF-0.3940766550522648
aF-0.3942877046325322
aF-0.3944986072423398
aF-0.3947093630351549
aF-0.3938761308281141
aF-0.39408695652173914
aF-0.3932545201668985
aF-0.3934654153632256
aF-0.3936761640027797
aF-0.3938867662382772
aF-0.39305555555555555
aF-0.3932662270045123
aF-0.3934767522553782
aF-0.39368713146028445
aF-0.39389736477115117
aF-0.394107452339688
aF-0.3943173943173943
aF-0.39452719085555943
aF-0.39369806094182824
aF-0.393907926618207
aF-0.39307958477508653
aF-0.3932895191975095
aF-0.39349930843706776
aF-0.3937089526443139
aF-0.39391845196959224
aF-0.39481865284974094
aF-0.39502762430939226
aF-0.39420089748015186
aF-0.39337474120082816
aF-0.39358399448085546
aF-0.39275862068965517
aF-0.3929679420889349
aF-0.39317711922811854
aF-0.3933861522562866
aF-0.39359504132231404
aF-0.3938037865748709
aF-0.39401238816242257
aF-0.3942208462332301
aF-0.39442916093535074
aF-0.3953248539016844
aF-0.3945017182130584
aF-0.39470972174510477
aF-0.3938873626373626
aF-0.394782011671816
aF-0.39498970487302676
aF-0.39588336192109774
aF-0.3950617283950617
aF-0.39526911210147414
aF-0.39547635366689515
aF-0.39568345323741005
aF-0.3958904109589041
aF-0.3960972269770627
aF-0.3952772073921971
aF-0.39548409168662335
aF-0.3956908344733242
aF-0.39658119658119656
aF-0.3967874231032126
aF-0.3959685685001708
aF-0.39617486338797814
aF-0.39638101741208603
aF-0.3965870307167236
aF-0.395769361992494
aF-0.39495225102319237
aF-0.3951585407432663
aF-0.39536468984321743
aF-0.39454855195911415
aF-0.39475476839237056
aF-0.39496084439904666
aF-0.3951667801225323
aF-0.39605307927866623
aF-0.39693877551020407
aF-0.39612376742604555
aF-0.39632902787219576
aF-0.3965341488277268
aF-0.3967391304347826
aF-0.3969439728353141
aF-0.3971486761710794
aF-0.3973532405836444
aF-0.39755766621438265
aF-0.3977619532044761
aF-0.39796610169491525
aF-0.3981701118264995
aF-0.39735772357723576
aF-0.3975618015577379
aF-0.3977657413676371
aF-0.39695431472081216
aF-0.39715832205683355
aF-0.39736219141021306
aF-0.3975659229208925
aF-0.39776951672862454
aF-0.3969594594594595
aF-0.3971631205673759
aF-0.3973666441593518
aF-0.3965575430307121
aF-0.3967611336032389
aF-0.39595278246205734
aF-0.3961564396493594
aF-0.39635995955510617
aF-0.3965633423180593
aF-0.39676658807679355
aF-0.39595959595959596
aF-0.39616290811174687
aF-0.39636608344549124
aF-0.39656912209889
aF-0.39677202420981844
aF-0.3969747899159664
aF-0.3971774193548387
aF-0.39737991266375544
aF-0.39657488247145734
aF-0.3957703927492447
aF-0.3959731543624161
aF-0.39516940623951696
aF-0.39436619718309857
aF-0.3945692256118002
aF-0.3937667560321716
aF-0.39396984924623113
aF-0.3941728064300067
aF-0.3933712755272849
aF-0.39357429718875503
aF-0.3937771830043493
aF-0.3939799331103679
aF-0.39418254764292876
aF-0.39338235294117646
aF-0.39358503174072834
aF-0.3927855711422846
aF-0.39298831385642735
aF-0.3931909212283044
aF-0.3933933933933934
aF-0.3935957304869913
aF-0.39379793264421475
aF-0.39466666666666667
aF-0.3938687104298567
aF-0.39407061958694206
aF-0.3932733932733933
aF-0.39347536617842876
aF-0.3936772046589018
aF-0.39387890884896876
aF-0.3940804788826073
aF-0.394281914893617
aF-0.39348620804253903
aF-0.39368770764119604
aF-0.3945533045499834
aF-0.3947543160690571
aF-0.3949551941586459
aF-0.39416058394160586
aF-0.3943615257048093
aF-0.39456233421750664
aF-0.39476300961219757
aF-0.3939695162359178
aF-0.3941702550513415
aF-0.39437086092715234
aF-0.39457133399536576
aF-0.3937789543348776
aF-0.3939794905722792
aF-0.3941798941798942
aF-0.3943801652892562
aF-0.39358889623265036
aF-0.39378923026098445
aF-0.3939894319682959
aF-0.3941895014856388
aF-0.3933993399339934
aF-0.39260969976905313
aF-0.3928100263852243
aF-0.393010220903396
aF-0.3932102834541859
aF-0.3940691927512356
aF-0.3942687747035573
aF-0.39446822522225883
aF-0.3946675444371297
aF-0.39387956564659427
aF-0.39407894736842103
aF-0.3932916803682999
aF-0.39250493096646943
aF-0.3927045678606638
aF-0.3919185282522996
aF-0.39113300492610836
aF-0.39198949441891007
aF-0.39218903839842467
aF-0.3914041994750656
aF-0.39160380452607413
aF-0.39081967213114754
aF-0.39003605375286793
aF-0.3892529488859764
aF-0.3894529970520799
aF-0.3886705959397512
aF-0.3888707037643208
aF-0.3880890052356021
aF-0.38828917239123323
aF-0.38750817527795944
aF-0.38738149722131415
aF-0.38758169934640524
aF-0.387781770663182
aF-0.3879817112998041
aF-0.3881815213842638
aF-0.38740208877284593
aF-0.38760195758564436
aF-0.3878016960208741
aF-0.38800130420606455
aF-0.38722294654498046
aF-0.38742261322906485
aF-0.38762214983713356
aF-0.3868446760013025
aF-0.3870442708333333
aF-0.38626749105109015
aF-0.38646714378659724
aF-0.38666666666666666
aF-0.38686605981794536
aF-0.38706532336691585
aF-0.387264457439896
aF-0.3864891198441052
aF-0.38571428571428573
aF-0.38591366439467706
aF-0.3867618429591175
aF-0.38696075251378526
aF-0.38715953307393
aF-0.3873581847649919
aF-0.3882047958522359
aF-0.3884029802397149
aF-0.38924870466321243
aF-0.38847523470378764
aF-0.38867313915857604
aF-0.38887091556130704
aF-0.38906856403622253
aF-0.3892660847074038
aF-0.3894634776987718
aF-0.38869143780290794
aF-0.3888888888888889
aF-0.38908621246367453
aF-0.3892834086507424
aF-0.38948047757341075
aF-0.3896774193548387
aF-0.3889068042566914
aF-0.38813668600902645
aF-0.3883338704479536
aF-0.38853092783505155
aF-0.3887278582930757
aF-0.38795878943979395
aF-0.3881557772771162
aF-0.38835263835263834
aF-0.388549372788678
aF-0.3887459807073955
aF-0.3879781420765027
aF-0.3872107969151671
aF-0.38805011243173787
aF-0.3882466281310212
aF-0.3884430176565008
aF-0.3886392811296534
aF-0.3888354186717998
aF-0.3890314304041052
aF-0.38922731644757935
aF-0.3894230769230769
aF-0.38961871195129766
aF-0.3898142216527867
aF-0.38904899135446686
aF-0.3892445582586428
aF-0.39008
aF-0.3893154190658989
aF-0.3895107131435881
aF-0.3887468030690537
aF-0.3895813358900607
aF-0.38977635782747605
aF-0.39061002874481
aF-0.39080459770114945
aF-0.3900414937759336
aF-0.3902361199744735
aF-0.39043062200956935
aF-0.38966836734693877
aF-0.389862926362767
aF-0.390057361376673
aF-0.3908888180949347
aF-0.3910828025477707
aF-0.3903215536453359
aF-0.390515595162317
aF-0.3897550111358575
aF-0.38994910941475824
aF-0.3901430842607313
aF-0.39033693579148127
aF-0.39053066412456305
aF-0.39072426937738247
aF-0.39091775166719595
aF-0.39111111111111113
aF-0.390352269120914
aF-0.3905456852791878
aF-0.3907389787503964
aF-0.38998097653772984
aF-0.3908082408874802
aF-0.39100126742712293
aF-0.39119417168197657
aF-0.3913869537682077
aF-0.39062994618550173
aF-0.39082278481012656
aF-0.39101550142360014
aF-0.3912080961416825
aF-0.3914005690799873
aF-0.3906447534766119
aF-0.39083728278041074
aF-0.3910296904611497
aF-0.3912219766340385
aF-0.39141414141414144
aF-0.39223729883243924
aF-0.39305993690851737
aF-0.3923052664774519
aF-0.3924968474148802
aF-0.39268830759533563
aF-0.39287964713295526
aF-0.39307086614173226
aF-0.3932619647355164
aF-0.39345294302801387
aF-0.394273127753304
aF-0.3944636678200692
aF-0.3937106918238994
aF-0.39390128890286075
aF-0.3940917661847894
aF-0.39428212378259503
aF-0.39353015075376885
aF-0.3927786499215071
aF-0.39296924042686754
aF-0.393159711327267
aF-0.3933500627352572
aF-0.39354029476324864
aF-0.39373040752351096
aF-0.393920401128173
aF-0.39473684210526316
aF-0.39492640150328845
aF-0.3941765810895429
aF-0.39342723004694835
aF-0.3926783479349186
aF-0.3919299343134188
aF-0.39118198874296434
aF-0.39137230384495153
aF-0.3915625
aF-0.39237738206810374
aF-0.3925671455340412
aF-0.3927567905088979
aF-0.3920099875156055
aF-0.3921996879875195
aF-0.39238927011852776
aF-0.3925787340193327
aF-0.39276807980049877
aF-0.39295730757245245
aF-0.39314641744548284
aF-0.3933354095297415
aF-0.3925902864259029
aF-0.39277933395580455
aF-0.3929682638456752
aF-0.3931570762052877
aF-0.39241293532338306
aF-0.392601802921977
aF-0.3927905531385954
aF-0.39204721963342654
aF-0.3922360248447205
aF-0.39242471282210495
aF-0.39168218497827434
aF-0.3918709277071052
aF-0.3920595533498759
aF-0.3922480620155039
aF-0.39243645381277126
aF-0.3926247288503254
aF-0.39281288723667906
aF-0.3920718488696191
aF-0.39226006191950463
aF-0.3924481584648716
aF-0.3926361386138614
aF-0.3928240024744819
aF-0.3930117501546073
aF-0.3922720247295209
aF-0.3915327564894932
aF-0.3907939450108125
aF-0.390982087708462
aF-0.3911701142327879
aF-0.391358024691358
aF-0.390620178957112
aF-0.3908081431215299
aF-0.3900709219858156
aF-0.38933415536374844
aF-0.388597842835131
aF-0.38878619839802836
aF-0.38897443794271636
aF-0.3891625615763547
aF-0.38935056940597107
aF-0.38953846153846156
aF-0.39034143340510613
aF-0.3905289052890529
aF-0.38979403627420844
aF-0.3899815611555009
aF-0.38924731182795697
aF-0.3894348894348894
aF-0.38962235185753763
aF-0.3898096992019644
aF-0.3899969315741025
aF-0.38926380368098157
aF-0.3894510886231217
aF-0.38963825873697117
aF-0.38982531412810295
aF-0.3900122549019608
aF-0.3901990811638591
aF-0.38946723821187995
aF-0.39026629935720847
aF-0.390452876376989
aF-0.3906393392474763
aF-0.3908256880733945
aF-0.3910119229593397
aF-0.39119804400978
aF-0.3913840513290559
aF-0.3915699450213806
aF-0.39083969465648855
aF-0.391025641025641
aF-0.39029600244125723
aF-0.3904820012202563
aF-0.39066788655077767
aF-0.3899390243902439
aF-0.3901249619018592
aF-0.3903107861060329
aF-0.38958269875114226
aF-0.38885505481120586
aF-0.3881278538812785
aF-0.38831405964698723
aF-0.38850015211439004
aF-0.3886861313868613
aF-0.38887199756764973
aF-0.3890577507598784
aF-0.3892433910665451
aF-0.3885176184690158
aF-0.3887033100516247
aF-0.3888888888888889
aF-0.3890743550834598
aF-0.3892597087378641
aF-0.3885350318471338
aF-0.38872043662825956
aF-0.38890572900879056
aF-0.3890909090909091
aF-0.3892759769766737
aF-0.3885523924894004
aF-0.3887375113533152
aF-0.3889225181598063
aF-0.38910741301059004
aF-0.3892921960072595
aF-0.38947686725128516
aF-0.3896614268440145
aF-0.3889392565729828
aF-0.38821752265861026
aF-0.387496224705527
aF-0.38768115942028986
aF-0.38846966495623303
aF-0.3886541943270972
aF-0.38883861236802414
aF-0.38902291917973464
aF-0.3883026831474224
aF-0.38758288125376733
aF-0.38686351310635736
aF-0.386144578313253
aF-0.38632941884974403
aF-0.38651414810355206
aF-0.38579596749924766
aF-0.38598074608904936
aF-0.38526315789473686
aF-0.38544798556825016
aF-0.3856327021340547
aF-0.3858173076923077
aF-0.386001802343046
aF-0.3867867867867868
aF-0.386970879615731
aF-0.3871548619447779
aF-0.38733873387338735
aF-0.38662267546490703
aF-0.3859070464767616
aF-0.38609112709832133
aF-0.3868744381180701
aF-0.38705811863391254
aF-0.38724168912848156
aF-0.38652694610778443
aF-0.38671056569889256
aF-0.3868940754039497
aF-0.38707747532156744
aF-0.38636363636363635
aF-0.38565022421524664
aF-0.385833831440526
aF-0.3851210038840753
aF-0.3844086021505376
aF-0.3845924156464616
aF-0.38477611940298506
aF-0.38495971351835273
aF-0.38514319809069214
aF-0.3853265732180137
aF-0.3855098389982111
aF-0.3856929955290611
aF-0.3858760429082241
aF-0.38605898123324395
aF-0.38624181060154855
aF-0.38642453111044955
aF-0.38660714285714287
aF-0.38678964593870874
aF-0.38697204045211187
aF-0.3871543264942016
aF-0.3864447086801427
aF-0.38662704309063894
aF-0.3868092691622103
aF-0.38699138699138697
aF-0.38717339667458434
aF-0.38646482635796975
aF-0.3857566765578635
aF-0.38593889053693264
aF-0.3861209964412811
aF-0.3863029943670323
aF-0.38648488441019563
aF-0.3857777777777778
aF-0.3859597156398104
aF-0.3861415457506663
aF-0.38632326820603907
aF-0.38561704646345074
aF-0.3857988165680473
aF-0.385980479148181
aF-0.38616203429923124
aF-0.3854566952409104
aF-0.38475177304964536
aF-0.3849335302806499
aF-0.38511518015357354
aF-0.38441098317094774
aF-0.3837072018890201
aF-0.3838890528179404
aF-0.3831858407079646
aF-0.38248304335004424
aF-0.38178066037735847
aF-0.3819628647214854
aF-0.38214496169711254
aF-0.3823269513991163
aF-0.38162544169611307
aF-0.38180747718575214
aF-0.38198940553266625
aF-0.382171226831421
aF-0.38235294117647056
aF-0.381652455160247
aF-0.3818342151675485
aF-0.3811342932706436
aF-0.3804347826086957
aF-0.38061674008810575
aF-0.3799177921315326
aF-0.3800997945406516
aF-0.38028169014084506
aF-0.3795834555588149
aF-0.37976539589442815
aF-0.37906772207563766
aF-0.37924970691676435
aF-0.37943158511573394
aF-0.37961335676625657
aF-0.37979502196193266
aF-0.3799765807962529
aF-0.37928007023705007
aF-0.3794616734932709
aF-0.37964317051769525
aF-0.3798245614035088
aF-0.38000584624378836
aF-0.3793103448275862
aF-0.37861524978089395
aF-0.37938084112149534
aF-0.3786861313868613
aF-0.37886748394629305
aF-0.37817332944266124
aF-0.3783547257876313
aF-0.3776611256926218
aF-0.37784256559766766
aF-0.3780238997376858
aF-0.3782051282051282
aF-0.3783862510923391
aF-0.3791496796738497
aF-0.379330422125182
aF-0.37951105937136204
aF-0.3796915915042188
aF-0.3798720186154741
aF-0.3800523407967432
aF-0.3802325581395349
aF-0.38041267073525137
aF-0.38059267867518887
aF-0.3807725820505373
aF-0.3800813008130081
aF-0.3802612481857765
aF-0.3804410911201393
aF-0.38062082970699157
aF-0.3799303944315545
aF-0.37924035952449986
aF-0.3794202898550725
aF-0.37960011590843235
aF-0.38035921205098494
aF-0.3805386620330148
aF-0.3798494499131442
aF-0.3791606367583213
aF-0.3793402777777778
aF-0.379519814868383
aF-0.37969924812030076
aF-0.3790112749349523
aF-0.3783236994219653
aF-0.37850332273909276
aF-0.378682842287695
aF-0.3779959572624892
aF-0.378175519630485
aF-0.3774891774891775
aF-0.37766878245816504
aF-0.3769829824055379
aF-0.3762975778546713
aF-0.3764773710002883
aF-0.376657060518732
aF-0.3759723422644771
aF-0.3752880184331797
aF-0.37460408868413475
aF-0.3747841105354059
aF-0.37496402877697843
aF-0.3742807825086306
aF-0.37359792924935287
aF-0.3737780333525014
aF-0.3739580339177925
aF-0.3732758620689655
aF-0.37345590347601265
aF-0.3736358414704193
aF-0.37381567614125755
aF-0.3739954075774971
aF-0.3733142037302726
aF-0.37349397590361444
aF-0.3742472039002007
aF-0.3744266055045872
aF-0.37517913442247064
aF-0.3753581661891118
aF-0.37553709538814095
aF-0.3757159221076747
aF-0.3758946464357286
aF-0.3760732684602175
aF-0.37625178826895567
aF-0.37643020594965676
aF-0.3771804403774664
aF-0.3765008576329331
aF-0.3766790511574736
aF-0.37685714285714284
aF-0.37703513281919454
aF-0.3772130211307824
aF-0.3773908078789609
aF-0.3775684931506849
aF-0.37774607703281027
aF-0.37706788362806615
aF-0.3763900769888794
aF-0.3765678449258837
aF-0.3767455115417498
aF-0.3769230769230769
aF-0.3771005411563657
aF-0.3772779043280182
aF-0.376601195559351
aF-0.37677859988616963
aF-0.377524893314367
aF-0.37770193401592717
aF-0.37787887404037535
aF-0.37805571347356454
aF-0.37823245240125036
aF-0.3784090909090909
aF-0.378585629082647
aF-0.37791027825099377
aF-0.37808685779165485
aF-0.3782633371169126
aF-0.37843971631205675
aF-0.3777651730005672
aF-0.3770910121916643
aF-0.3772675736961451
aF-0.3774440351374327
aF-0.37762039660056657
aF-0.37779665817048996
aF-0.37797281993204984
aF-0.3781488819699972
aF-0.378324844368987
aF-0.3785007072135785
aF-0.3778280542986425
aF-0.3771557817359344
aF-0.37789711701526285
aF-0.37807290194970333
aF-0.37740112994350283
aF-0.3775769556622423
aF-0.3769057029926595
aF-0.3762348292407564
aF-0.37641083521444696
aF-0.3771509167842031
aF-0.377326565143824
aF-0.3775021144629264
aF-0.37767756482525366
aF-0.3778529163144548
aF-0.37859154929577465
aF-0.37792171219374826
aF-0.37809684684684686
aF-0.3782718829158458
aF-0.3784468204839617
aF-0.3786216596343179
aF-0.3787964004499438
aF-0.37897104301377565
aF-0.37914558740865656
aF-0.37932003371733636
aF-0.37949438202247193
aF-0.37966863240662735
aF-0.379842784952274
aF-0.3791748526522593
aF-0.3793490460157127
aF-0.37868162692847124
aF-0.37885586090858103
aF-0.3790299971965237
aF-0.3797645739910314
aF-0.37909778649481646
aF-0.3792717086834734
aF-0.37944553346401566
aF-0.3796192609182531
aF-0.3797928911279037
aF-0.3799664241745943
aF-0.3801398601398601
aF-0.38031319910514544
aF-0.3796477495107632
aF-0.38038010061486865
aF-0.38055322715842416
aF-0.3807262569832402
aF-0.38089919017034346
aF-0.38107202680067004
aF-0.3804074797655596
aF-0.38058035714285715
aF-0.3799163179916318
aF-0.3800892359174568
aF-0.37942570393086145
aF-0.3795986622073579
aF-0.379771524101421
aF-0.37994428969359334
aF-0.379281537176274
aF-0.37861915367483295
aF-0.37879209574172
aF-0.3781302170283806
aF-0.37746870653685677
aF-0.37764182424916576
aF-0.37837086460939673
aF-0.37854363535297386
aF-0.37871631008613504
aF-0.3788888888888889
aF-0.37906137184115524
aF-0.3784008883953359
aF-0.3785734110463503
aF-0.3793007769145394
aF-0.3794729542302358
aF-0.37964503605102606
aF-0.3789853063487663
aF-0.37915742793791574
aF-0.37849819894707676
aF-0.37867036011080335
aF-0.3788424259207976
aF-0.3790143964562569
aF-0.37835593689454744
aF-0.3776978417266187
aF-0.37786998616874135
aF-0.377212389380531
aF-0.3765551562068012
aF-0.3767274737423991
aF-0.3768996960486322
aF-0.3770718232044199
aF-0.37724385528859433
aF-0.3774157923799006
aF-0.37758763455699695
aF-0.37775938189845476
aF-0.37710344827586206
aF-0.3764478764478765
aF-0.3766197959746347
aF-0.37679162072767364
aF-0.3761366767704602
aF-0.3763085399449036
aF-0.3764803084549711
aF-0.3766519823788546
aF-0.37682356179466003
aF-0.37699504678040724
aF-0.3771664374140303
aF-0.3773377337733773
aF-0.37750893593621115
aF-0.37685541506322157
aF-0.3770266556746359
aF-0.3771978021978022
aF-0.37736885471024445
aF-0.37753981328940145
aF-0.3768871808948669
aF-0.3770581778265642
aF-0.3764060356652949
aF-0.3765770707624794
aF-0.3767480120647107
aF-0.3769188596491228
aF-0.37708961359276516
aF-0.37726027397260276
aF-0.3774308408655163
aF-0.3776013143483023
aF-0.37777169449767317
aF-0.37794198139025725
aF-0.37729138166894666
aF-0.3774617067833698
aF-0.37681159420289856
aF-0.37698195735374523
aF-0.37633233123804316
aF-0.3765027322404372
aF-0.3772193389784212
aF-0.3773894046968869
aF-0.3775593775593776
aF-0.3777292576419214
aF-0.37844474761255115
aF-0.3777959629023459
aF-0.3779656394873193
aF-0.3781352235550709
aF-0.3783047151812483
aF-0.3776566757493188
aF-0.3778262053936257
aF-0.3779956427015251
aF-0.37816498774843454
aF-0.37833424060968973
aF-0.37768707482993197
aF-0.37704026115342765
aF-0.37720968180582
aF-0.377379010331702
aF-0.37754824680619736
aF-0.37771739130434784
aF-0.3784297745177941
aF-0.378598587724063
aF-0.3779527559055118
aF-0.3781216069489685
aF-0.37883310719131613
aF-0.37900162778079216
aF-0.37835638730675347
aF-0.3777114967462039
aF-0.3770669558145839
aF-0.3772357723577236
aF-0.3779463560010837
aF-0.37730227518959913
aF-0.37747089087462765
aF-0.37682728749323224
aF-0.37699594046008117
aF-0.37716450216450215
aF-0.376521503922099
aF-0.3766901027582477
aF-0.3760475804271425
aF-0.3754054054054054
aF-0.37557416914347475
aF-0.3757428417071853
aF-0.3759114231704024
aF-0.37607991360691145
aF-0.37543859649122807
aF-0.37560712358337833
aF-0.3749662800107904
aF-0.3751348435814455
aF-0.37449447290374765
aF-0.3746630727762803
aF-0.3740231743465373
aF-0.37419181034482757
aF-0.3743603555076757
aF-0.3745288099084545
aF-0.3746971736204576
aF-0.3748654467168999
aF-0.3750336292709174
aF-0.3752017213555675
aF-0.37456305458456574
aF-0.37473118279569895
aF-0.374899220639613
aF-0.3750671681891456
aF-0.3752350255170561
aF-0.3745972073039742
aF-0.37476510067114094
aF-0.37412775093934514
aF-0.3742956801717199
aF-0.3736587982832618
aF-0.3730222579780102
aF-0.3731903485254692
aF-0.37335834896810505
aF-0.37272240085744907
aF-0.37289043664612914
aF-0.3735940010712373
aF-0.37376171352074966
aF-0.37312633832976444
aF-0.3724913031843725
aF-0.37319422150882825
aF-0.3733618614602835
aF-0.37406417112299467
aF-0.37423148890670943
aF-0.37439871726349544
aF-0.373764360138926
aF-0.37393162393162394
aF-0.3740987983978638
aF-0.3742658836091831
aF-0.37443287963704297
aF-0.37379935965848454
aF-0.37396639103761004
aF-0.37466666666666665
aF-0.37483337776592907
aF-0.375
aF-0.374367172928324
aF-0.3737346830047949
aF-0.37390146471371505
aF-0.3740681576144835
aF-0.37423476177801435
aF-0.3744012772751463
aF-0.3745677041766427
aF-0.373936170212766
aF-0.37463440574315343
aF-0.3748006379585327
aF-0.3749667818230136
aF-0.3751328374070138
aF-0.3745019920318725
aF-0.37466808284652153
aF-0.37483408547916114
aF-0.375
aF-0.3743698593791457
aF-0.37453580901856764
aF-0.3747016706443914
aF-0.37407211028632026
aF-0.37344288364696526
aF-0.37360890302066774
aF-0.3737748344370861
aF-0.3739406779661017
aF-0.37410643367752183
aF-0.37427210164107994
aF-0.3749669224662609
aF-0.37513227513227515
aF-0.3752975403332452
aF-0.37546271813855103
aF-0.37562780861749934
aF-0.37579281183932345
aF-0.3759577278731836
aF-0.3753301637612256
aF-0.37470293108001057
aF-0.37486800422386485
aF-0.37424122459751913
aF-0.3744063324538259
aF-0.3745713532049591
aF-0.37473628691983124
aF-0.3741102030055365
aF-0.3742751713231418
aF-0.3736495388669302
aF-0.3738145416227608
aF-0.37397945746642086
aF-0.37467087941021593
aF-0.3748354830218479
aF-0.375
aF-0.3751644304130492
aF-0.3745397159389795
aF-0.37470418090980806
aF-0.37486855941114616
aF-0.3750328515111695
aF-0.3744088281660536
aF-0.3745731547149987
aF-0.3747373949579832
aF-0.37542662116040953
aF-0.37559055118110235
aF-0.3757543951718709
aF-0.3751311647429171
aF-0.3752950432730134
aF-0.3746722600943891
aF-0.3753604193971166
aF-0.37552410901467503
aF-0.3756877128635054
aF-0.37585123101100054
aF-0.3760146635244829
aF-0.3761780104712042
aF-0.3755561371368752
aF-0.3757195185766614
aF-0.37588281454355216
aF-0.3760460251046025
aF-0.37620915032679736
aF-0.3755880815473079
aF-0.3757512411810818
aF-0.37591431556948796
aF-0.3760773047793157
aF-0.37545691906005224
aF-0.37561994257374054
aF-0.3757828810020877
aF-0.375945734411688
aF-0.3761085028690663
aF-0.376271186440678
aF-0.37643378519290926
aF-0.37659629919207716
aF-0.3767587285044294
aF-0.3769210731961448
aF-0.3763020833333333
aF-0.37646446237958864
aF-0.37662675689744923
aF-0.37678896695290137
aF-0.37695109261186266
aF-0.37711313394018203
aF-0.37727509100364015
aF-0.37795684949311154
aF-0.3781185031185031
aF-0.3782800727461678
aF-0.37844155844155847
aF-0.37860296027005974
aF-0.37876427829698855
aF-0.3789255125875941
aF-0.37830825116761807
aF-0.3776913099870298
aF-0.3778526970954357
aF-0.37723619393310864
aF-0.3773976153447382
aF-0.37755895309665716
aF-0.377720207253886
aF-0.3778813778813779
aF-0.37726566545831175
aF-0.3774268703080507
aF-0.37681159420289856
aF-0.3761966364812419
aF-0.376357992757372
aF-0.3765192655805534
aF-0.3766804550155119
aF-0.37735849056603776
aF-0.37751937984496126
aF-0.37690519245672954
aF-0.37706611570247933
aF-0.3772269558481797
aF-0.37738771295818274
aF-0.3775483870967742
aF-0.37770897832817335
aF-0.3778694867165334
aF-0.3780299123259412
aF-0.37819025522041766
aF-0.3783505154639175
aF-0.3785106931203298
aF-0.3786707882534776
aF-0.3780582024208087
aF-0.3782183316168898
aF-0.3783783783783784
aF-0.37853834276891407
aF-0.3779264214046823
aF-0.37808641975308643
aF-0.3782463358189766
aF-0.3776349614395887
aF-0.3783089180159342
aF-0.3784686536485098
aF-0.3778576932956589
aF-0.37801746276322545
aF-0.37817715019255455
aF-0.37833675564681724
aF-0.3790094944829356
aF-0.37916880451513596
aF-0.3793280328289305
aF-0.37948717948717947
aF-0.3796462445526788
aF-0.3798052280881599
aF-0.37996413015629005
aF-0.3793545081967213
aF-0.3795134443021767
aF-0.3796722990271377
aF-0.37983107243409264
aF-0.37922210849539406
aF-0.37938091583525196
aF-0.379539641943734
aF-0.3796982868831501
aF-0.37985685071574643
aF-0.3800153335037056
aF-0.38017373530914667
aF-0.3795657726692209
aF-0.37972420837589377
aF-0.3798825631861118
aF-0.38004083716181725
aF-0.380199030364889
aF-0.38035714285714284
aF-0.3805151747003315
aF-0.38067312595614483
aF-0.3808309966862095
aF-0.38022426095820594
aF-0.3803821656050955
aF-0.380539989811513
aF-0.38069773363891013
aF-0.38085539714867617
aF-0.3815220157800967
aF-0.3816793893129771
aF-0.38107351818875607
aF-0.38123092573753814
aF-0.38138825324180015
aF-0.3815455007625826
aF-0.3809402795425667
aF-0.38109756097560976
aF-0.381254762509525
aF-0.3819197562214322
aF-0.3813150545823813
aF-0.38147208121827414
aF-0.38162902816544025
aF-0.38178589548452563
aF-0.3824499112351002
aF-0.38260649087221094
aF-0.38276299112801015
aF-0.3834262544348708
aF-0.38358246769698506
aF-0.3829787234042553
aF-0.38313497087870346
aF-0.38253164556962027
aF-0.3819286256643888
aF-0.3813259109311741
aF-0.38198836326840374
aF-0.3821446636317653
aF-0.3823008849557522
aF-0.38245702730030334
aF-0.3826130907252969
aF-0.38276907529055076
aF-0.3829249810558222
aF-0.3830808080808081
aF-0.3824791719262812
aF-0.38263503281171124
aF-0.3827908150391118
aF-0.3829465186680121
aF-0.3823455233291299
aF-0.3817448310640444
aF-0.3811444416435594
aF-0.3805443548387097
aF-0.3799445704207609
aF-0.3801007556675063
aF-0.3802568622513221
aF-0.38041289023162134
aF-0.37981374276365465
aF-0.379214896829391
aF-0.37937106918238994
aF-0.3795271629778672
aF-0.37968317827508175
aF-0.3790849673202614
aF-0.37924101533048504
aF-0.378643216080402
aF-0.37879929665913087
aF-0.37820190858864894
aF-0.37760482048707006
aF-0.3782630522088353
aF-0.3784190715181932
aF-0.37907676869041645
aF-0.3792325056433409
aF-0.37938816449348045
aF-0.37954374529957385
aF-0.37969924812030076
aF-0.3798546730142821
aF-0.38001002004008017
aF-0.3794139744552968
aF-0.3788182273410115
aF-0.3782227784730914
aF-0.3783783783783784
aF-0.378533900425319
aF-0.3791895947973987
aF-0.37934483620905224
aF-0.37875
aF-0.3789052736815796
aF-0.3790604697651174
aF-0.37921558830876845
aF-0.3793706293706294
aF-0.3787765293383271
aF-0.37893160259610587
aF-0.37908659845270776
aF-0.37924151696606784
aF-0.37939635819406337
aF-0.37880299251870325
aF-0.3782099227125405
aF-0.37836490528414757
aF-0.3777722402192873
aF-0.37717987045341306
aF-0.37733499377334995
aF-0.37749003984063745
aF-0.37764500871296985
aF-0.37779990044798406
aF-0.3772082607613834
aF-0.37661691542288556
aF-0.3767719472767968
aF-0.37692690203878665
aF-0.37708177976634355
aF-0.3764910536779324
aF-0.3766459627329193
aF-0.3768007948335817
aF-0.3762105785944872
aF-0.37636544190665344
aF-0.3765202283445024
aF-0.3766749379652605
aF-0.37682957082609775
aF-0.376984126984127
aF-0.3771386064964047
aF-0.3765493306891423
aF-0.3771995043370508
aF-0.3773538156590684
aF-0.3775080505325737
aF-0.3769192669638435
aF-0.37707353305273583
aF-0.37722772277227723
aF-0.3773818361791636
aF-0.3767936665017318
aF-0.37694781103141234
aF-0.37710187932739864
aF-0.3777503090234858
aF-0.3779041028175976
aF-0.37731653076352856
aF-0.3767292490118577
aF-0.3768831810323537
aF-0.37703703703703706
aF-0.3771908170822019
aF-0.37734452122408685
aF-0.3774981495188749
aF-0.3781450419338925
aF-0.3782983970406905
aF-0.3777120315581854
aF-0.37835839290115847
aF-0.37851158206012814
aF-0.3779255974377926
aF-0.37807881773399016
aF-0.3782319625707954
aF-0.3776464795667159
aF-0.3777996554270244
aF-0.3779527559055118
aF-0.37810578105781056
aF-0.3782587309394983
aF-0.3776739611507253
aF-0.377826941986234
aF-0.3772425657409683
aF-0.3778869778869779
aF-0.3780397936624908
aF-0.37745579567779963
aF-0.37760864227841884
aF-0.37702503681885124
aF-0.37717791411042945
aF-0.3773307163886163
aF-0.37748344370860926
aF-0.37763609612555177
aF-0.37705319931355724
aF-0.37769607843137254
aF-0.3778485665278118
aF-0.3780009799118079
aF-0.3781533186382562
aF-0.37757100881488737
aF-0.3769889840881273
aF-0.377141458639256
aF-0.3772938585759726
aF-0.3767123287671233
aF-0.3768647591098068
aF-0.37628361858190706
aF-0.37643607919824
aF-0.3765884652981427
aF-0.3767407769362326
aF-0.37689301416707377
aF-0.37704517704517704
aF-0.37646484375
aF-0.3758847937515255
aF-0.37603709126403123
aF-0.37618931446694315
aF-0.375609756097561
aF-0.37576200926603265
aF-0.37591418820087763
aF-0.3760662929563734
aF-0.3762183235867446
aF-0.3763702801461632
aF-0.37652216268874816
aF-0.3766739712685659
aF-0.37682570593963
aF-0.37697736675590166
aF-0.3763990267639903
aF-0.3765507175869618
aF-0.3767023346303502
aF-0.3768538779479699
aF-0.3770053475935829
aF-0.3764277035236938
aF-0.37657920310981535
aF-0.3767306290988584
aF-0.376881981544439
aF-0.37703326050012137
aF-0.37766990291262137
aF-0.37709293860713416
aF-0.3777292576419214
aF-0.3778801843317972
aF-0.3780310378273521
aF-0.3781818181818182
aF-0.37833252544837614
aF-0.37848315968015506
aF-0.37863372093023256
aF-0.3780576410753209
aF-0.3782082324455206
aF-0.3776325344952796
aF-0.377783155856728
aF-0.37793370433099444
aF-0.37735849056603776
aF-0.37799274486094314
aF-0.3781431334622824
aF-0.3782934493594392
aF-0.3784436926051232
aF-0.37859386325199323
aF-0.3780193236714976
aF-0.37744506157932867
aF-0.37687107677450504
aF-0.37629736905623945
aF-0.3764478764478765
aF-0.37659831121833537
aF-0.37602508441871685
aF-0.37545213407282374
aF-0.37560270009643204
aF-0.3750301277416245
aF-0.3751807228915663
aF-0.37533124548301616
aF-0.37475915221579964
aF-0.374187334457019
aF-0.37433798748194513
aF-0.37448856799037306
aF-0.3746390760346487
aF-0.3747895116670676
aF-0.37421837421837423
aF-0.3743688386631402
aF-0.37451923076923077
aF-0.37466955058880075
aF-0.37481979817395483
aF-0.37496997357674755
aF-0.3756003842459174
aF-0.37623049219687876
aF-0.3756601056168987
aF-0.3758099352051836
aF-0.3759596928982726
aF-0.3753897817222355
aF-0.37553956834532376
aF-0.3761687844641573
aF-0.3755992329817833
aF-0.37574886173017014
aF-0.375898418782942
aF-0.37604790419161677
aF-0.3761973180076628
aF-0.3763466602824994
aF-0.3757778841550981
aF-0.37520938023450584
aF-0.37535885167464117
aF-0.3747907199234633
aF-0.3749402199904352
aF-0.37437245995696866
aF-0.3738049713193117
aF-0.3739545997610514
aF-0.37338748208313427
aF-0.37353713876283734
aF-0.3736867239732569
aF-0.3738362377655765
aF-0.3739856801909308
aF-0.37413505130040564
aF-0.37428435114503816
aF-0.3744335797758168
aF-0.37458273724368146
aF-0.3740166865315852
aF-0.3734509056244042
aF-0.3736001906123422
aF-0.373749404478323
aF-0.3738985472731603
aF-0.37333333333333335
aF-0.37348250416567486
aF-0.37410756782484533
aF-0.37425648346419227
aF-0.37440532825880113
aF-0.3738406658739596
aF-0.37327627199239183
aF-0.37390064178749705
aF-0.3740494296577947
aF-0.3741981468282252
aF-0.37363420427553445
aF-0.3730705295654239
aF-0.3732193732193732
aF-0.3733681462140992
aF-0.3735168485999051
aF-0.3736654804270463
aF-0.3742884250474383
aF-0.37443680341474983
aF-0.3745851114272167
aF-0.37473334913486606
aF-0.3741706161137441
aF-0.3736081497275527
aF-0.37375651350071054
aF-0.3739048070092351
aF-0.37452651515151514
aF-0.3739644970414201
aF-0.37340274491244674
aF-0.3728412585758221
aF-0.3729895931882687
aF-0.37242847008749114
aF-0.3725768321513002
aF-0.37201607185062635
aF-0.372164461247637
aF-0.3723127805339003
aF-0.37293339631554084
aF-0.3730814639905549
aF-0.37252124645892354
aF-0.372669341515223
aF-0.37281736668239734
aF-0.372965322009908
aF-0.3731132075471698
aF-0.37255364300872434
aF-0.3727015558698727
aF-0.37284939901013436
aF-0.3729971724787936
aF-0.3724381625441696
aF-0.3718794159208667
aF-0.3713209324228867
aF-0.3714689265536723
aF-0.3716168510237703
aF-0.37176470588235294
aF-0.37191249117854625
aF-0.37253057384760113
aF-0.3719727251351987
aF-0.3721203573107663
aF-0.37226792009400705
aF-0.37241541353383456
aF-0.37256283767911674
aF-0.37271019257867544
aF-0.3728574782812867
aF-0.3730046948356808
aF-0.37244778221074865
aF-0.3725950258094791
aF-0.3727422003284072
aF-0.3721857410881801
aF-0.37233294255568583
aF-0.3717768401312705
aF-0.37192406843215375
aF-0.3713683223992502
aF-0.3715155774185992
aF-0.37096018735362996
aF-0.3711074689768204
aF-0.37125468164794007
aF-0.371401825415399
aF-0.371548900327562
aF-0.3716959064327485
aF-0.37184284377923293
aF-0.37245732990413843
aF-0.37190275829827024
aF-0.37204954428604814
aF-0.372196261682243
aF-0.37234291053492174
aF-0.3724894908921065
aF-0.37263600280177445
aF-0.3727824463118581
aF-0.37292882147024503
aF-0.37307512832477835
aF-0.37252157686027526
aF-0.3726679104477612
aF-0.3728141757985544
aF-0.37226107226107225
aF-0.3717082265206246
aF-0.3711556383970177
aF-0.3713021197297927
aF-0.3714485328365161
aF-0.37159487776484285
aF-0.3717411545623836
aF-0.3711892017686758
aF-0.3713355048859935
aF-0.3714817399395208
aF-0.37093023255813956
aF-0.37107649383864216
aF-0.3705253370525337
aF-0.3706716244480595
aF-0.370817843866171
aF-0.37096399535423924
aF-0.3715745471435207
aF-0.3710239145576968
aF-0.3711699164345404
aF-0.37131585054537014
aF-0.37146171693735497
aF-0.37160751565762007
aF-0.3717532467532468
aF-0.3718989102712729
aF-0.3720445062586926
aF-0.37219003476245655
aF-0.3716404077849861
aF-0.37178596247394025
aF-0.37123668364983786
aF-0.3713822644130586
aF-0.3715277777777778
aF-0.37167322379078915
aF-0.37181860249884313
aF-0.37196391394864675
aF-0.372109158186864
aF-0.3722543352601156
aF-0.37170596393897365
aF-0.3723133810954472
aF-0.3724584103512015
aF-0.3726033726033726
aF-0.37205542725173213
aF-0.3715077349341953
aF-0.3716528162511542
aF-0.37179783060235405
aF-0.37125057683433316
aF-0.37139561707035756
aF-0.37154059040590404
aF-0.3709937744985013
aF-0.3711387736284002
aF-0.37128370592302373
aF-0.37142857142857144
aF-0.3715733701912002
aF-0.3717181022570244
aF-0.37186276767211607
aF-0.3720073664825046
aF-0.3721518987341772
aF-0.3722963644730787
aF-0.3724407637451116
aF-0.37258509659613614
aF-0.3727293630719706
aF-0.372183908045977
aF-0.372328200413698
aF-0.37247242647058826
aF-0.3730760395129796
aF-0.37253100597152045
aF-0.37267508610792194
aF-0.37281910009182734
aF-0.3729630479687859
aF-0.372418540614961
aF-0.37256251433815096
aF-0.37270642201834864
aF-0.3721623480853015
aF-0.37161852361302156
aF-0.37176254870501946
aF-0.3719065077910174
aF-0.3720504009163803
aF-0.3721942281264315
aF-0.37165101900618275
aF-0.3717948717948718
aF-0.3719386587319753
aF-0.3720823798627002
aF-0.3722260352322123
aF-0.37236962488563585
aF-0.372513148868054
aF-0.37197073616826704
aF-0.37142857142857144
aF-0.37088665447897623
aF-0.37034498514964587
aF-0.3704888076747373
aF-0.37063256451244575
aF-0.37009132420091323
aF-0.36955033097466333
aF-0.36969420356001825
aF-0.3698380104950947
aF-0.3699817518248175
aF-0.3701254275940707
aF-0.3707250341997264
aF-0.3701846364258035
aF-0.3703281677301732
aF-0.37047163362952834
aF-0.3706150341685649
aF-0.37075836939193807
aF-0.3709016393442623
aF-0.37104484407011157
aF-0.3711879836140191
aF-0.37133105802047783
aF-0.37147406733393995
aF-0.3716170115988174
aF-0.3717598908594816
aF-0.3719027051602637
aF-0.37136363636363634
aF-0.37082481254260397
aF-0.3709677419354839
aF-0.37111060640472404
aF-0.37057220708446864
aF-0.37071509648127127
aF-0.3713118474807081
aF-0.3707737690038575
aF-0.37137023593466423
aF-0.37196643229757315
aF-0.37142857142857144
aF-0.37089095443210157
aF-0.37103354487760654
aF-0.37049626104690686
aF-0.37063887630267334
aF-0.3712344280860702
aF-0.3713768115942029
aF-0.37151913063165043
aF-0.3709823449524672
aF-0.37112468884362976
aF-0.37126696832579187
aF-0.3707306039357611
aF-0.3701944821347806
aF-0.3703368754239204
aF-0.37047920433996384
aF-0.36994350282485877
aF-0.3700858563036602
aF-0.37022814547097355
aF-0.37037037037037035
aF-0.37051253104538273
aF-0.36997742663656885
aF-0.37011961182577297
aF-0.37026173285198555
aF-0.3704037897586285
aF-0.3705457825890843
aF-0.37001127395715894
aF-0.3701532912533814
aF-0.37029524453459545
aF-0.3704371338440739
aF-0.3705789592250507
aF-0.3707207207207207
aF-0.37086241837424005
aF-0.3710040522287258
aF-0.37114562232725634
aF-0.3712871287128713
aF-0.37142857142857144
aF-0.37156995051731895
aF-0.3710366539239937
aF-0.37117805755395683
aF-0.37131939761744215
aF-0.3714606741573034
aF-0.3716018872163559
aF-0.3717430368373765
aF-0.37188412306310353
aF-0.3720251459362371
aF-0.37216610549943885
aF-0.37230700179533216
aF-0.3724478348665021
aF-0.3725886047554957
aF-0.3727293115048217
aF-0.37286995515695065
aF-0.37233804079802735
aF-0.3718063648588077
aF-0.37194712077078196
aF-0.3720878136200717
aF-0.37222844344904815
aF-0.3716972682489924
aF-0.3718379225430938
aF-0.3719785138764548
aF-0.3714477511747595
aF-0.370917225950783
aF-0.371057928874972
aF-0.37052772808586765
aF-0.3706684551754974
aF-0.3712561466249441
aF-0.37139664804469275
aF-0.3715370866845398
aF-0.371007371007371
aF-0.3711478338543993
aF-0.37061844161643226
aF-0.37120535714285713
aF-0.37067618835081456
aF-0.3708165997322624
aF-0.37095694847200533
aF-0.3710972346119536
aF-0.3712374581939799
aF-0.37182345073562195
aF-0.3719634499665701
aF-0.3721033868092692
aF-0.37157496101581644
aF-0.37171492204899775
aF-0.37185482075261633
aF-0.3719946571682992
aF-0.3721344313376363
aF-0.37227414330218067
aF-0.3724137931034483
aF-0.37255338078291816
aF-0.3720257949744274
aF-0.3721654068474878
aF-0.37163814180929094
aF-0.3711111111111111
aF-0.3705843145967563
aF-0.37072412261217236
aF-0.3708638685320897
aF-0.3710035523978686
aF-0.37114317425083243
aF-0.3712827341322681
aF-0.3707566008431329
aF-0.3713398402839397
aF-0.3714792636948326
aF-0.3716186252771619
aF-0.37175792507204614
aF-0.37189716312056736
aF-0.37203633946377135
aF-0.3721754541426673
aF-0.3723145071982281
aF-0.3724534986713906
aF-0.37259242860305514
aF-0.37317397078353254
aF-0.3726488161097588
aF-0.372787610619469
aF-0.3722627737226277
aF-0.3724015922158337
aF-0.3729825337165598
aF-0.3724580017683466
aF-0.3725966850828729
aF-0.37273530711444985
aF-0.372873867903689
aF-0.37234982332155475
aF-0.37248840803709427
aF-0.3726269315673289
aF-0.3721032884572942
aF-0.37224183583406883
aF-0.371718508713876
aF-0.37119541243934717
aF-0.3713340683572216
aF-0.37081128747795417
aF-0.3709499669385056
aF-0.371088585279859
aF-0.37122714254241024
aF-0.37136563876651985
aF-0.3715040739925127
aF-0.3709819462791722
aF-0.37156064274708345
aF-0.37213908450704225
aF-0.3727172717271727
aF-0.37285525736911573
aF-0.3723334066417418
aF-0.37247141600703604
aF-0.37260936469553746
aF-0.37274725274725273
aF-0.3728850802021534
aF-0.37302284710017575
aF-0.3731605534812212
aF-0.3732981993851559
aF-0.37343578485181117
aF-0.3735733099209833
aF-0.37371077463243363
aF-0.37384817902588857
aF-0.3733274840973898
aF-0.37280701754385964
aF-0.37294452970839725
aF-0.37242437527400263
aF-0.37190444882752577
aF-0.37138475021910605
aF-0.37152245345016427
aF-0.3720981165133596
aF-0.37223560324063937
aF-0.3723730297723292
aF-0.3725103961479536
aF-0.37199124726477023
aF-0.3721286370597244
aF-0.37226596675415574
aF-0.3724032363874918
aF-0.3729777000437254
aF-0.37311475409836065
aF-0.3732517482517482
aF-0.37338868254315055
aF-0.3735255570117955
aF-0.3740991482856519
aF-0.374235807860262
aF-0.374372407771229
aF-0.37450894805761675
aF-0.37464542875845513
aF-0.37478184991273994
aF-0.37491821155943295
aF-0.37440034888791973
aF-0.3738827120122084
aF-0.37401918047079336
aF-0.3741555894530399
aF-0.37429193899782137
aF-0.3737747767370943
aF-0.3743466898954704
aF-0.37448290877422163
aF-0.3739660426643448
aF-0.3741022850924918
aF-0.3742384682332463
aF-0.37372199260387207
aF-0.3738581992170509
aF-0.3739943465970863
aF-0.3741304347826087
aF-0.37426646381221473
aF-0.37440243372446763
aF-0.37453834455789703
aF-0.37467419635099913
aF-0.3748099891422367
aF-0.3749457229700391
aF-0.37508139787280226
aF-0.3745659722222222
aF-0.3747016706443914
aF-0.37483731019522776
aF-0.37497289091303404
aF-0.3751084128360798
aF-0.37524387600260134
aF-0.37537928045080193
aF-0.37594799566630555
aF-0.3765164644714038
aF-0.37665150530647606
aF-0.37678648765699435
aF-0.37692141156094394
aF-0.37705627705627703
aF-0.37654187405323525
aF-0.3766767633059282
aF-0.37681159420289856
aF-0.377378892733564
aF-0.37794594594594594
aF-0.377431906614786
aF-0.37756645774800085
aF-0.37705272255834055
aF-0.3771872974724563
aF-0.3773218142548596
aF-0.3774562729432088
aF-0.37759067357512954
aF-0.37772501618821497
aF-0.3778593008200259
aF-0.3779935275080906
aF-0.3781276962899051
aF-0.3776148371792107
aF-0.3777490297542044
aF-0.3778831644751024
aF-0.37801724137931036
aF-0.37858220211161386
aF-0.3787160706591986
aF-0.37820374757699765
aF-0.3783376399655469
aF-0.3784714747039828
aF-0.37860525182953075
aF-0.37873897137938456
aF-0.3788726333907057
aF-0.37900623790062377
aF-0.37913978494623657
aF-0.37927327456460974
aF-0.3794067067927773
aF-0.37889533634214484
aF-0.3790287924366137
aF-0.3791621911922664
aF-0.3792955326460481
aF-0.3787846252952545
aF-0.3789179905538858
aF-0.37905129856192316
aF-0.3791845493562232
aF-0.37867410426947007
aF-0.37816387816387814
aF-0.3782972335406391
aF-0.37843053173241853
aF-0.3785637727759914
aF-0.3780540077153879
aF-0.3781872723376902
aF-0.3783204798628963
aF-0.3778110944527736
aF-0.37794432548179874
aF-0.3780774994647827
aF-0.3782106164383562
aF-0.3777016905628076
aF-0.37783483097988874
aF-0.3779679144385027
aF-0.3781009409751925
aF-0.37823391062646994
aF-0.3783668234288157
aF-0.37785851677708915
aF-0.3784188034188034
aF-0.3785515915402692
aF-0.378684322938915
aF-0.3781763826606876
aF-0.3783091374893254
aF-0.3784418356456777
aF-0.37900128040973113
aF-0.3784937059953062
aF-0.37862627986348124
aF-0.37875879718490085
aF-0.3788912579957356
aF-0.37902366233212537
aF-0.37915601023017903
aF-0.37928830172597483
aF-0.37942053685556026
aF-0.3795527156549521
aF-0.37968483816013626
aF-0.37981690440706833
aF-0.3793103448275862
aF-0.3794424345605448
aF-0.37893617021276593
aF-0.37906828334396936
aF-0.37920034028073163
aF-0.3786944503508399
aF-0.3788265306122449
aF-0.3789585547290117
aF-0.37909052273693156
aF-0.3792224346717655
aF-0.37935429056924386
aF-0.37948609046506687
aF-0.3796178343949045
aF-0.3797495223943961
aF-0.38030560271646857
aF-0.38086144706131975
aF-0.38141705557912603
aF-0.3819724284199364
aF-0.38210347752332485
aF-0.3822344710621158
aF-0.3823654090716405
aF-0.38249629158720067
aF-0.38199152542372883
aF-0.38212243168820165
aF-0.38225328250741214
aF-0.38238407791657847
aF-0.38187976291278575
aF-0.382010582010582
aF-0.38214134574693187
aF-0.3822720541569706
aF-0.3824027072758037
aF-0.38189892154789595
aF-0.38202959830866806
aF-0.38216021982667514
aF-0.3816568047337278
aF-0.3817874498204099
aF-0.38191803971271654
aF-0.38141499472016893
aF-0.38091216216216217
aF-0.38104285412708466
aF-0.3811734909244407
aF-0.38172610255328127
aF-0.3818565400843882
aF-0.38198692259017086
aF-0.3814846056516238
aF-0.3816150115960363
aF-0.38174536256323777
aF-0.38187565858798733
aF-0.38200589970501475
aF-0.38213608594902043
aF-0.38226621735467564
aF-0.3817645820172668
aF-0.38126315789473686
aF-0.38139339086508106
aF-0.38152356902356904
aF-0.3820744792762466
aF-0.38220445940260833
aF-0.38233438485804416
aF-0.3824642556770395
aF-0.3830145049400883
aF-0.3825136612021858
aF-0.3830636688379912
aF-0.3831932773109244
aF-0.3833228313379542
aF-0.38345233095338094
aF-0.3829519210581566
aF-0.3830814441645676
aF-0.3832109129066107
aF-0.3833403273185061
aF-0.38346968743444515
aF-0.3835989932885906
aF-0.3837282449150765
aF-0.3838574423480084
aF-0.38440578495074407
aF-0.38453478625314336
aF-0.3846637335009428
aF-0.3847926267281106
aF-0.3849214659685864
aF-0.3850502512562814
aF-0.3851789826250785
aF-0.38530766010883216
aF-0.3854362837413685
aF-0.38493723849372385
aF-0.38548420832461827
aF-0.3849853617733166
aF-0.3851139452226636
aF-0.38524247491638797
aF-0.38474399164054335
aF-0.3848725449226912
aF-0.38500104449550865
aF-0.38512949039264827
aF-0.38463144706619334
aF-0.38517745302713985
aF-0.385305781673972
aF-0.3854340567612688
aF-0.3859795535155435
aF-0.386107634543179
aF-0.3862356621480709
aF-0.38636363636363635
aF-0.38649155722326456
aF-0.3866194247603168
aF-0.38612210877266095
aF-0.38625
aF-0.386377837950427
aF-0.38650562265722616
aF-0.38663335415365396
aF-0.3867610324729392
aF-0.38688865764828306
aF-0.38701622971285893
aF-0.38651965883087164
aF-0.38664725457570714
aF-0.3867747972551466
aF-0.3869022869022869
aF-0.3870297235501975
aF-0.3871571072319202
aF-0.3872844379804696
aF-0.38741171582883255
aF-0.38753894080996887
aF-0.38766611295681064
aF-0.3877932323022628
aF-0.387920298879203
aF-0.38804731272048143
aF-0.38817427385892117
aF-0.388301182327318
aF-0.38842803815844046
aF-0.38855484138503005
aF-0.388681592039801
aF-0.38880829015544044
aF-0.38831330294239536
aF-0.3884400248601616
aF-0.38856669428334717
aF-0.3886933112445641
aF-0.38923395445134573
aF-0.3897743738356448
aF-0.38990066225165565
aF-0.39002689840678667
aF-0.39015308233347124
aF-0.3902792140641158
aF-0.3904052936311001
aF-0.3905313210667769
aF-0.3906572964034725
aF-0.3907832196734863
aF-0.39090909090909093
aF-0.39103491014253255
aF-0.3905410987195374
aF-0.39066694197811275
aF-0.3901734104046243
aF-0.39029927760577915
aF-0.3904250928600908
aF-0.39055085619971114
aF-0.39067656765676567
aF-0.3912146834398845
aF-0.3917525773195876
aF-0.3922902494331066
aF-0.39241549876339654
aF-0.3925406964764063
aF-0.3926658426040379
aF-0.392173017507724
aF-0.3922981878088962
aF-0.39242330656784025
aF-0.39254837381638535
aF-0.39267338958633463
aF-0.39279835390946505
aF-0.39333470479325244
aF-0.3928424516659811
aF-0.39235040098704504
aF-0.3924753289473684
aF-0.3926002055498458
aF-0.3927250308261406
aF-0.392233408670639
aF-0.3917419884963024
aF-0.39186691312384475
aF-0.39137577002053386
aF-0.39150071853828783
aF-0.3910098522167488
aF-0.3905191873589165
aF-0.3906442347148133
aF-0.39076923076923076
aF-0.39089417555373257
aF-0.39101906909985645
aF-0.3915539155391554
aF-0.3916786226685796
aF-0.39221311475409837
aF-0.3923376357303831
aF-0.39287177386317085
aF-0.39299610894941633
aF-0.3925061425061425
aF-0.3926305015353122
aF-0.3927548096602538
aF-0.3928790669122161
aF-0.3923895253682488
aF-0.3919001840867253
aF-0.39243353783231083
aF-0.39194438765078715
aF-0.39145543744889616
aF-0.39157980788882074
aF-0.391704127503065
aF-0.39121552604698673
aF-0.39133986928104575
aF-0.3914641617316725
aF-0.39097590853409553
aF-0.3911002245356195
aF-0.39122448979591834
aF-0.39134870434605185
aF-0.3908608731130151
aF-0.39098511115643486
aF-0.39110929853181076
aF-0.3912334352701325
aF-0.39074602527517327
aF-0.3908701854493581
aF-0.3903830480847596
aF-0.3905072316154003
aF-0.3906313645621181
aF-0.3907554469558135
aF-0.3902687296416938
aF-0.390392835334826
aF-0.39051689051689054
aF-0.3906408952187182
aF-0.39076484947111473
aF-0.39088875330486067
aF-0.39101260675071164
aF-0.39113640983939824
aF-0.391260162601626
aF-0.39077423287949603
aF-0.39089800893945553
aF-0.39102173471460494
aF-0.3911454102355808
aF-0.3912690355329949
aF-0.39078359723913925
aF-0.39029835599756446
aF-0.39042207792207795
aF-0.3905457496449584
aF-0.3900608519269777
aF-0.39018454674508213
aF-0.3903081914030819
aF-0.38982363673221165
aF-0.38994730441832187
aF-0.3904761904761905
aF-0.3905996758508914
aF-0.3907231112011343
aF-0.39084649655731063
aF-0.3903624215428224
aF-0.3904858299595142
aF-0.3906091884233961
aF-0.39073249696479156
aF-0.3908557556139996
aF-0.3909789644012945
aF-0.3911021233569262
aF-0.3912252325111201
aF-0.3913482918940772
aF-0.3908649959579628
aF-0.3909880783996767
aF-0.3905050505050505
aF-0.39062815592809536
aF-0.39115508885298866
aF-0.3912780133252574
aF-0.3914008881711748
aF-0.39091826437941474
aF-0.39144471347861176
aF-0.39156748033084526
aF-0.39108511496571197
aF-0.39120790481952006
aF-0.3907258064516129
aF-0.390848619229994
aF-0.3909713825070536
aF-0.3910940963127141
aF-0.3912167606768735
aF-0.39133937562940585
aF-0.3908578332662102
aF-0.39037648479967785
aF-0.3898953301127214
aF-0.38941436908834776
aF-0.3899396378269618
aF-0.3900623616978475
aF-0.3901850362027353
aF-0.3903076613714056
aF-0.3904302372336148
aF-0.3905527638190955
aF-0.39107717041800644
aF-0.39119951778179624
aF-0.3907191643230213
aF-0.39023900381602733
aF-0.3897590361445783
aF-0.3898815498895804
aF-0.3900040144520273
aF-0.3901264298615292
aF-0.39065008025682185
aF-0.39077231695085257
aF-0.39089450461291614
aF-0.39041507920593543
aF-0.3905372894947875
aF-0.39065945079174186
aF-0.3901803607214429
aF-0.3897014626327389
aF-0.3892227564102564
aF-0.3893450831163629
aF-0.3894673608329996
aF-0.3895895895895896
aF-0.3897117694155324
aF-0.3898339003402041
aF-0.3899559823929572
aF-0.38947789557911583
aF-0.3896
aaI5000
a.