(lp0
(lp1
F-1.0
aF-1.0
aF-1.0
aF-0.25
aF0.2
aF0.5
aF0.2857142857142857
aF0.5
aF0.6666666666666666
aF0.8
aF0.6363636363636364
aF0.5
aF0.38461538461538464
aF0.2857142857142857
aF0.2
aF0.3125
aF0.23529411764705882
aF0.16666666666666666
aF0.10526315789473684
aF0.05
aF0.0
aF-0.045454545454545456
aF-0.08695652173913043
aF-0.125
aF-0.16
aF-0.19230769230769232
aF-0.2222222222222222
aF-0.14285714285714285
aF-0.1724137931034483
aF-0.1
aF-0.12903225806451613
aF-0.0625
aF0.0
aF0.058823529411764705
aF0.02857142857142857
aF0.0
aF-0.02702702702702703
aF-0.05263157894736842
aF-0.07692307692307693
aF-0.1
aF-0.12195121951219512
aF-0.14285714285714285
aF-0.16279069767441862
aF-0.11363636363636363
aF-0.13333333333333333
aF-0.15217391304347827
aF-0.2127659574468085
aF-0.16666666666666666
aF-0.1836734693877551
aF-0.14
aF-0.1568627450980392
aF-0.17307692307692307
aF-0.18867924528301888
aF-0.2037037037037037
aF-0.16363636363636364
aF-0.125
aF-0.14035087719298245
aF-0.1896551724137931
aF-0.2033898305084746
aF-0.16666666666666666
aF-0.18032786885245902
aF-0.14516129032258066
aF-0.15873015873015872
aF-0.171875
aF-0.18461538461538463
aF-0.19696969696969696
aF-0.16417910447761194
aF-0.1323529411764706
aF-0.10144927536231885
aF-0.07142857142857142
aF-0.08450704225352113
aF-0.05555555555555555
aF-0.0273972602739726
aF-0.04054054054054054
aF-0.05333333333333334
aF-0.06578947368421052
aF-0.07792207792207792
aF-0.08974358974358974
aF-0.10126582278481013
aF-0.075
aF-0.08641975308641975
aF-0.06097560975609756
aF-0.07228915662650602
aF-0.047619047619047616
aF-0.023529411764705882
aF0.0
aF0.022988505747126436
aF0.045454545454545456
aF0.033707865168539325
aF0.05555555555555555
aF0.07692307692307693
aF0.09782608695652174
aF0.11827956989247312
aF0.10638297872340426
aF0.12631578947368421
aF0.14583333333333334
aF0.13402061855670103
aF0.15306122448979592
aF0.1414141414141414
aF0.13
aF0.1188118811881188
aF0.10784313725490197
aF0.1262135922330097
aF0.11538461538461539
aF0.13333333333333333
aF0.1509433962264151
aF0.16822429906542055
aF0.18518518518518517
aF0.2018348623853211
aF0.19090909090909092
aF0.18018018018018017
aF0.16964285714285715
aF0.1592920353982301
aF0.17543859649122806
aF0.16521739130434782
aF0.15517241379310345
aF0.17094017094017094
aF0.1864406779661017
aF0.20168067226890757
aF0.19166666666666668
aF0.18181818181818182
aF0.19672131147540983
aF0.21138211382113822
aF0.20161290322580644
aF0.192
aF0.18253968253968253
aF0.1968503937007874
aF0.1875
aF0.17829457364341086
aF0.16923076923076924
aF0.16030534351145037
aF0.17424242424242425
aF0.18796992481203006
aF0.1791044776119403
aF0.1925925925925926
aF0.18382352941176472
aF0.19708029197080293
aF0.21014492753623187
aF0.22302158273381295
aF0.21428571428571427
aF0.20567375886524822
aF0.21830985915492956
aF0.2097902097902098
aF0.2222222222222222
aF0.23448275862068965
aF0.22602739726027396
aF0.23809523809523808
aF0.22972972972972974
aF0.2214765100671141
aF0.21333333333333335
aF0.2052980132450331
aF0.19736842105263158
aF0.20915032679738563
aF0.22077922077922077
aF0.2
aF0.19230769230769232
aF0.18471337579617833
aF0.17721518987341772
aF0.16981132075471697
aF0.1625
aF0.15527950310559005
aF0.14814814814814814
aF0.15950920245398773
aF0.17073170731707318
aF0.18181818181818182
aF0.1927710843373494
aF0.20359281437125748
aF0.21428571428571427
aF0.22485207100591717
aF0.21764705882352942
aF0.21052631578947367
aF0.20348837209302326
aF0.19653179190751446
aF0.1896551724137931
aF0.18285714285714286
aF0.17613636363636365
aF0.1694915254237288
aF0.1797752808988764
aF0.18994413407821228
aF0.2
aF0.20994475138121546
aF0.2032967032967033
aF0.19672131147540983
aF0.19021739130434784
aF0.2
aF0.20967741935483872
aF0.20320855614973263
aF0.19680851063829788
aF0.20634920634920634
aF0.21578947368421053
aF0.2094240837696335
aF0.21875
aF0.22797927461139897
aF0.22164948453608246
aF0.2153846153846154
aF0.22448979591836735
aF0.2182741116751269
aF0.21212121212121213
aF0.22110552763819097
aF0.23
aF0.22388059701492538
aF0.23267326732673269
aF0.22660098522167488
aF0.22058823529411764
aF0.2146341463414634
aF0.22330097087378642
aF0.21739130434782608
aF0.21153846153846154
aF0.22009569377990432
aF0.22857142857142856
aF0.23696682464454977
aF0.23113207547169812
aF0.22535211267605634
aF0.21962616822429906
aF0.21395348837209302
aF0.2222222222222222
aF0.2304147465437788
aF0.22477064220183487
aF0.2191780821917808
aF0.22727272727272727
aF0.23529411764705882
aF0.24324324324324326
aF0.23766816143497757
aF0.24553571428571427
aF0.24
aF0.2345132743362832
aF0.2290748898678414
aF0.2236842105263158
aF0.2314410480349345
aF0.22608695652173913
aF0.22077922077922077
aF0.21551724137931033
aF0.21030042918454936
aF0.21794871794871795
aF0.2127659574468085
aF0.22033898305084745
aF0.22784810126582278
aF0.22268907563025211
aF0.2175732217573222
aF0.2125
aF0.21991701244813278
aF0.22727272727272727
aF0.2222222222222222
aF0.21721311475409835
aF0.22448979591836735
aF0.21951219512195122
aF0.22672064777327935
aF0.23387096774193547
aF0.24096385542168675
aF0.236
aF0.24302788844621515
aF0.23809523809523808
aF0.233201581027668
aF0.2283464566929134
aF0.2235294117647059
aF0.21875
aF0.2140077821011673
aF0.20155038759689922
aF0.1969111969111969
aF0.19230769230769232
aF0.18773946360153257
aF0.183206106870229
aF0.17870722433460076
aF0.1856060606060606
aF0.1811320754716981
aF0.17669172932330826
aF0.17228464419475656
aF0.16791044776119404
aF0.16356877323420074
aF0.17037037037037037
aF0.17712177121771217
aF0.18382352941176472
aF0.19047619047619047
aF0.19708029197080293
aF0.19272727272727272
aF0.18840579710144928
aF0.18411552346570398
aF0.17985611510791366
aF0.17562724014336917
aF0.17142857142857143
aF0.17793594306049823
aF0.17375886524822695
aF0.1696113074204947
aF0.176056338028169
aF0.1824561403508772
aF0.17832167832167833
aF0.17421602787456447
aF0.1701388888888889
aF0.17647058823529413
aF0.18275862068965518
aF0.18900343642611683
aF0.1952054794520548
aF0.19112627986348124
aF0.19727891156462585
aF0.19322033898305085
aF0.19932432432432431
aF0.2053872053872054
aF0.21140939597315436
aF0.20735785953177258
aF0.20333333333333334
aF0.19933554817275748
aF0.19536423841059603
aF0.20132013201320131
aF0.20723684210526316
aF0.20327868852459016
aF0.19934640522875818
aF0.19543973941368079
aF0.2012987012987013
aF0.19741100323624594
aF0.2032258064516129
aF0.2090032154340836
aF0.20512820512820512
aF0.2012779552715655
aF0.19745222929936307
aF0.19365079365079366
aF0.189873417721519
aF0.19558359621451105
aF0.20125786163522014
aF0.19122257053291536
aF0.1875
aF0.1838006230529595
aF0.18944099378881987
aF0.19504643962848298
aF0.19135802469135801
aF0.18769230769230769
aF0.18404907975460122
aF0.1743119266055046
aF0.1798780487804878
aF0.18541033434650456
aF0.19090909090909092
aF0.19637462235649547
aF0.1927710843373494
aF0.1891891891891892
aF0.18562874251497005
aF0.18208955223880596
aF0.1875
aF0.19287833827893175
aF0.19822485207100593
aF0.1887905604719764
aF0.18529411764705883
aF0.1906158357771261
aF0.195906432748538
aF0.20116618075801748
aF0.2063953488372093
aF0.2028985507246377
aF0.1994219653179191
aF0.19596541786743515
aF0.1925287356321839
aF0.18911174785100288
aF0.18571428571428572
aF0.18233618233618235
aF0.17329545454545456
aF0.17847025495750707
aF0.18361581920903955
aF0.18028169014084508
aF0.17696629213483145
aF0.18207282913165265
aF0.1787709497206704
aF0.16991643454038996
aF0.16666666666666666
aF0.1634349030470914
aF0.16022099447513813
aF0.15702479338842976
aF0.1620879120879121
aF0.16712328767123288
aF0.16393442622950818
aF0.16076294277929154
aF0.16576086956521738
aF0.17073170731707318
aF0.16756756756756758
aF0.1725067385444744
aF0.1693548387096774
aF0.1742627345844504
aF0.17914438502673796
aF0.176
aF0.18085106382978725
aF0.17771883289124668
aF0.1693121693121693
aF0.1662269129287599
aF0.1631578947368421
aF0.16010498687664043
aF0.15706806282722513
aF0.15404699738903394
aF0.15104166666666666
aF0.14805194805194805
aF0.13989637305699482
aF0.13695090439276486
aF0.13402061855670103
aF0.13881748071979436
aF0.13076923076923078
aF0.12276214833759591
aF0.11479591836734694
aF0.10687022900763359
aF0.1116751269035533
aF0.10886075949367088
aF0.10606060606060606
aF0.10327455919395466
aF0.10804020100502512
aF0.11278195488721804
aF0.11
aF0.10723192019950124
aF0.1044776119402985
aF0.10918114143920596
aF0.10643564356435643
aF0.1037037037037037
aF0.10098522167487685
aF0.10565110565110565
aF0.11029411764705882
aF0.11491442542787286
aF0.11951219512195121
aF0.12408759124087591
aF0.12135922330097088
aF0.12590799031476999
aF0.13043478260869565
aF0.13493975903614458
aF0.13221153846153846
aF0.12949640287769784
aF0.12679425837320574
aF0.12410501193317422
aF0.12142857142857143
aF0.12589073634204276
aF0.13033175355450238
aF0.1347517730496454
aF0.1320754716981132
aF0.12941176470588237
aF0.1267605633802817
aF0.12412177985948478
aF0.12149532710280374
aF0.11888111888111888
aF0.11627906976744186
aF0.12064965197215777
aF0.11342592592592593
aF0.11085450346420324
aF0.1152073732718894
aF0.11954022988505747
aF0.11697247706422019
aF0.11441647597254005
aF0.1187214611872146
aF0.11617312072892938
aF0.12045454545454545
aF0.11791383219954649
aF0.12217194570135746
aF0.11963882618510158
aF0.11711711711711711
aF0.1146067415730337
aF0.11210762331838565
aF0.116331096196868
aF0.12053571428571429
aF0.11804008908685969
aF0.11555555555555555
aF0.1197339246119734
aF0.1172566371681416
aF0.11037527593818984
aF0.10792951541850221
aF0.11208791208791209
aF0.10964912280701754
aF0.10722100656455143
aF0.11135371179039301
aF0.10893246187363835
aF0.11304347826086956
aF0.11062906724511931
aF0.10822510822510822
aF0.11231101511879049
aF0.11637931034482758
aF0.11397849462365592
aF0.11802575107296137
aF0.12205567451820129
aF0.11965811965811966
aF0.11727078891257996
aF0.1148936170212766
aF0.11252653927813164
aF0.11016949152542373
aF0.10782241014799154
aF0.11181434599156118
aF0.10947368421052632
aF0.10294117647058823
aF0.1069182389937107
aF0.1108786610878661
aF0.10855949895615867
aF0.1125
aF0.1101871101871102
aF0.11410788381742738
aF0.11180124223602485
aF0.11570247933884298
aF0.1134020618556701
aF0.11728395061728394
aF0.11498973305954825
aF0.11270491803278689
aF0.11042944785276074
aF0.10816326530612246
aF0.10590631364562118
aF0.10365853658536585
aF0.10141987829614604
aF0.10526315789473684
aF0.10303030303030303
aF0.10685483870967742
aF0.11066398390342053
aF0.10843373493975904
aF0.11222444889779559
aF0.116
aF0.11377245508982035
aF0.11155378486055777
aF0.10934393638170974
aF0.10714285714285714
aF0.11089108910891089
aF0.11462450592885376
aF0.11834319526627218
aF0.11614173228346457
aF0.11394891944990176
aF0.11176470588235295
aF0.11545988258317025
aF0.11328125
aF0.1111111111111111
aF0.11478599221789883
aF0.11844660194174757
aF0.12209302325581395
aF0.11992263056092843
aF0.11776061776061776
aF0.12138728323699421
aF0.11923076923076924
aF0.11708253358925144
aF0.11494252873563218
aF0.11854684512428298
aF0.12213740458015267
aF0.12
aF0.11787072243346007
aF0.1157495256166983
aF0.11363636363636363
aF0.11153119092627599
aF0.10943396226415095
aF0.10734463276836158
aF0.11090225563909774
aF0.11444652908067542
aF0.11235955056179775
aF0.1102803738317757
aF0.11380597014925373
aF0.11173184357541899
aF0.11524163568773234
aF0.11317254174397032
aF0.1111111111111111
aF0.11460258780036968
aF0.11808118081180811
aF0.11602209944751381
aF0.11948529411764706
aF0.12293577981651377
aF0.12637362637362637
aF0.12431444241316271
aF0.12773722627737227
aF0.12568306010928962
aF0.12363636363636364
aF0.12159709618874773
aF0.11956521739130435
aF0.12296564195298372
aF0.1263537906137184
aF0.12432432432432433
aF0.1223021582733813
aF0.12028725314183124
aF0.12365591397849462
aF0.12701252236135957
aF0.125
aF0.12299465240641712
aF0.12633451957295375
aF0.12966252220248667
aF0.13297872340425532
aF0.13628318584070798
aF0.13427561837455831
aF0.13227513227513227
aF0.13028169014084506
aF0.1335676625659051
aF0.13157894736842105
aF0.13485113835376533
aF0.1381118881118881
aF0.14136125654450263
aF0.13937282229965156
aF0.1426086956521739
aF0.140625
aF0.1386481802426343
aF0.13667820069204153
aF0.13471502590673576
aF0.13275862068965516
aF0.13080895008605853
aF0.12886597938144329
aF0.1320754716981132
aF0.13013698630136986
aF0.1282051282051282
aF0.12627986348122866
aF0.12947189097103917
aF0.12755102040816327
aF0.1307300509337861
aF0.13389830508474576
aF0.1319796954314721
aF0.13006756756756757
aF0.1281618887015177
aF0.12626262626262627
aF0.12436974789915967
aF0.12751677852348994
aF0.1306532663316583
aF0.13377926421404682
aF0.1318864774624374
aF0.13
aF0.1281198003327787
aF0.13122923588039867
aF0.13432835820895522
aF0.13245033112582782
aF0.1305785123966942
aF0.13366336633663367
aF0.13179571663920922
aF0.1299342105263158
aF0.12807881773399016
aF0.12622950819672132
aF0.12438625204582651
aF0.12745098039215685
aF0.12234910277324633
aF0.1254071661237785
aF0.12357723577235773
aF0.1185064935064935
aF0.1166936790923825
aF0.11488673139158576
aF0.11793214862681745
aF0.12096774193548387
aF0.12399355877616747
aF0.12218649517684887
aF0.12038523274478331
aF0.11858974358974358
aF0.1168
aF0.11980830670926518
aF0.12280701754385964
aF0.12579617834394904
aF0.1287758346581876
aF0.13174603174603175
aF0.12995245641838352
aF0.1281645569620253
aF0.1263823064770932
aF0.12460567823343849
aF0.12755905511811025
aF0.13050314465408805
aF0.12872841444270017
aF0.12695924764890282
aF0.12519561815336464
aF0.1234375
aF0.12168486739469579
aF0.11993769470404984
aF0.1181959564541213
aF0.11645962732919254
aF0.11937984496124031
aF0.12229102167182662
aF0.1205564142194745
aF0.12345679012345678
aF0.12172573189522343
aF0.12
aF0.11827956989247312
aF0.1165644171779141
aF0.11179173047473201
aF0.11009174311926606
aF0.11297709923664122
aF0.11585365853658537
aF0.1141552511415525
aF0.11246200607902736
aF0.11532625189681335
aF0.11363636363636363
aF0.11649016641452345
aF0.1148036253776435
aF0.11312217194570136
aF0.11144578313253012
aF0.11428571428571428
aF0.11261261261261261
aF0.11094452773613193
aF0.11377245508982035
aF0.11659192825112108
aF0.11492537313432835
aF0.11326378539493294
aF0.11160714285714286
aF0.11441307578008915
aF0.1172106824925816
aF0.11555555555555555
aF0.11390532544378698
aF0.11669128508124077
aF0.11946902654867257
aF0.12223858615611193
aF0.125
aF0.12334801762114538
aF0.12609970674486803
aF0.12884333821376281
aF0.13157894736842105
aF0.1343065693430657
aF0.1326530612244898
aF0.13100436681222707
aF0.13372093023255813
aF0.13642960812772134
aF0.13478260869565217
aF0.13748191027496381
aF0.14017341040462428
aF0.14285714285714285
aF0.14553314121037464
aF0.14388489208633093
aF0.14224137931034483
aF0.1406025824964132
aF0.13896848137535817
aF0.13733905579399142
aF0.13285714285714287
aF0.1355206847360913
aF0.1339031339031339
aF0.13229018492176386
aF0.13068181818181818
aF0.12907801418439716
aF0.13172804532577903
aF0.13012729844413012
aF0.1327683615819209
aF0.13540197461212977
aF0.13380281690140844
aF0.13220815752461323
aF0.1348314606741573
aF0.1332398316970547
aF0.13165266106442577
aF0.13006993006993006
aF0.13268156424581007
aF0.12831241283124128
aF0.12674094707520892
aF0.12934631432545202
aF0.12777777777777777
aF0.130374479889043
aF0.12880886426592797
aF0.1272475795297372
aF0.12569060773480664
aF0.12413793103448276
aF0.12258953168044077
aF0.12104539202200826
aF0.11950549450549451
aF0.11796982167352538
aF0.11643835616438356
aF0.11901504787961696
aF0.12158469945355191
aF0.12005457025920874
aF0.11852861035422343
aF0.12108843537414966
aF0.11956521739130435
aF0.11804613297150611
aF0.12059620596205962
aF0.11907983761840325
aF0.12162162162162163
aF0.12010796221322537
aF0.11859838274932614
aF0.11709286675639301
aF0.11290322580645161
aF0.11140939597315436
aF0.10991957104557641
aF0.11244979919678715
aF0.11497326203208556
aF0.11748998664886515
aF0.11333333333333333
aF0.1118508655126498
aF0.11037234042553191
aF0.10889774236387782
aF0.10742705570291777
aF0.10596026490066225
aF0.10846560846560846
aF0.10700132100396301
aF0.10554089709762533
aF0.10408432147562582
aF0.10263157894736842
aF0.1011826544021025
aF0.09973753280839895
aF0.0982961992136304
aF0.0968586387434555
aF0.09542483660130718
aF0.097911227154047
aF0.10039113428943937
aF0.09895833333333333
aF0.09752925877763328
aF0.1
aF0.10246433203631647
aF0.10492227979274611
aF0.1034928848641656
aF0.1020671834625323
aF0.10064516129032258
aF0.09922680412371133
aF0.0978120978120978
aF0.10025706940874037
aF0.09884467265725289
aF0.10128205128205128
aF0.0998719590268886
aF0.10230179028132992
aF0.10089399744572158
aF0.09948979591836735
aF0.10191082802547771
aF0.1005089058524173
aF0.09911054637865312
aF0.09771573604060914
aF0.10012674271229405
aF0.09873417721518987
aF0.09734513274336283
aF0.09595959595959595
aF0.09836065573770492
aF0.09697732997481108
aF0.09559748427672957
aF0.0942211055276382
aF0.09661229611041405
aF0.09523809523809523
aF0.09762202753441802
aF0.09625
aF0.09488139825218476
aF0.09351620947630923
aF0.0958904109589041
aF0.0945273631840796
aF0.09316770186335403
aF0.09553349875930521
aF0.09789343246592318
aF0.09653465346534654
aF0.09888751545117429
aF0.09753086419753086
aF0.093711467324291
aF0.09236453201970443
aF0.0910209102091021
aF0.08968058968058969
aF0.08834355828220859
aF0.08700980392156862
aF0.08567931456548347
aF0.0843520782396088
aF0.08302808302808302
aF0.08170731707317073
aF0.08404384896467722
aF0.0827250608272506
aF0.08140947752126367
aF0.08373786407766991
aF0.08606060606060606
aF0.08837772397094432
aF0.08706166868198308
aF0.08574879227053141
aF0.08805790108564536
aF0.09036144578313253
aF0.08904933814681107
aF0.08774038461538461
aF0.09003601440576231
aF0.08872901678657075
aF0.08502994011976048
aF0.08732057416267942
aF0.08602150537634409
aF0.08472553699284009
aF0.08700834326579261
aF0.08928571428571429
aF0.08799048751486326
aF0.08669833729216152
aF0.0830367734282325
aF0.08175355450236967
aF0.08402366863905325
aF0.08628841607565012
aF0.08500590318772137
aF0.08726415094339622
aF0.08362779740871613
aF0.08
aF0.07873090481786134
aF0.07746478873239436
aF0.07620164126611957
aF0.07494145199063232
aF0.07368421052631578
aF0.07242990654205607
aF0.07117852975495916
aF0.07342657342657342
aF0.07217694994179279
aF0.07093023255813953
aF0.06968641114982578
aF0.07192575406032482
aF0.07068366164542295
aF0.07291666666666667
aF0.07167630057803469
aF0.07390300230946882
aF0.0726643598615917
aF0.0748847926267281
aF0.07364787111622555
aF0.07586206896551724
aF0.07807118254879448
aF0.0768348623853211
aF0.07560137457044673
aF0.07437070938215103
aF0.07314285714285715
aF0.07534246575342465
aF0.07411630558722919
aF0.07630979498861047
aF0.07849829351535836
aF0.07727272727272727
aF0.07604994324631101
aF0.0782312925170068
aF0.07701019252548132
aF0.0757918552036199
aF0.07457627118644068
aF0.07674943566591422
aF0.07328072153325817
aF0.07207207207207207
aF0.07086614173228346
aF0.07303370786516854
aF0.07519640852974187
aF0.07399103139013453
aF0.0761478163493841
aF0.07270693512304251
aF0.07486033519553073
aF0.07366071428571429
aF0.07246376811594203
aF0.07461024498886415
aF0.07341490545050056
aF0.07222222222222222
aF0.07103218645948946
aF0.06984478935698447
aF0.07198228128460686
aF0.07411504424778761
aF0.07624309392265194
aF0.07505518763796909
aF0.07386990077177508
aF0.07048458149779736
aF0.06930693069306931
aF0.06813186813186813
aF0.06695938529088913
aF0.06578947368421052
aF0.06462212486308871
aF0.06345733041575492
aF0.06229508196721312
aF0.06441048034934498
aF0.06324972737186478
aF0.06209150326797386
aF0.060935799782372145
aF0.06304347826086956
aF0.06514657980456026
aF0.06399132321041215
aF0.06608884073672806
aF0.06493506493506493
aF0.06378378378378378
aF0.06263498920086392
aF0.061488673139158574
aF0.0603448275862069
aF0.062432723358449946
aF0.06129032258064516
aF0.06015037593984962
aF0.059012875536480686
aF0.05787781350482315
aF0.056745182012847964
aF0.05561497326203209
aF0.057692307692307696
aF0.05656350053361793
aF0.05543710021321962
aF0.054313099041533544
aF0.05319148936170213
aF0.05526036131774708
aF0.054140127388535034
aF0.05620360551431601
aF0.05826271186440678
aF0.05714285714285714
aF0.05919661733615222
aF0.05807814149947202
aF0.056962025316455694
aF0.059009483667017915
aF0.05789473684210526
aF0.056782334384858045
aF0.05567226890756303
aF0.05456453305351522
aF0.05345911949685535
aF0.05235602094240838
aF0.051255230125523014
aF0.050156739811912224
aF0.049060542797494784
aF0.047966631908237745
aF0.05
aF0.04890738813735692
aF0.04781704781704782
aF0.04984423676012461
aF0.05186721991701245
aF0.05077720207253886
aF0.049689440993788817
aF0.05170630816959669
aF0.05371900826446281
aF0.05572755417956656
aF0.05463917525773196
aF0.05664263645726056
aF0.05555555555555555
aF0.052415210688591986
aF0.0513347022587269
aF0.05333333333333334
aF0.05225409836065574
aF0.0511770726714432
aF0.053169734151329244
aF0.05515832482124617
aF0.05408163265306123
aF0.05606523955147808
aF0.05804480651731161
aF0.056968463886063074
aF0.05894308943089431
aF0.05786802030456853
aF0.056795131845841784
aF0.05572441742654509
aF0.057692307692307696
aF0.05965621840242669
aF0.05858585858585859
aF0.05751765893037336
aF0.056451612903225805
aF0.0553877139979859
aF0.05432595573440644
aF0.05628140703517588
aF0.055220883534136546
aF0.05416248746238716
aF0.0531062124248497
aF0.055055055055055056
aF0.054
aaI1000
a.