(lp0
(lp1
F-1.0
aF-1.0
aF-1.0
aF-0.25
aF-0.8
aF-1.1666666666666667
aF-1.1428571428571428
aF-1.125
aF-1.1111111111111112
aF-1.1
aF-1.0909090909090908
aF-1.0833333333333333
aF-0.8461538461538461
aF-0.8571428571428571
aF-0.6666666666666666
aF-0.5
aF-0.5294117647058824
aF-0.3888888888888889
aF-0.42105263157894735
aF-0.45
aF-0.47619047619047616
aF-0.5
aF-0.5217391304347826
aF-0.5416666666666666
aF-0.56
aF-0.5769230769230769
aF-0.5925925925925926
aF-0.5
aF-0.41379310344827586
aF-0.3333333333333333
aF-0.25806451612903225
aF-0.1875
aF-0.12121212121212122
aF-0.058823529411764705
aF-0.08571428571428572
aF-0.1111111111111111
aF-0.13513513513513514
aF-0.07894736842105263
aF-0.10256410256410256
aF-0.125
aF-0.07317073170731707
aF-0.09523809523809523
aF-0.11627906976744186
aF-0.13636363636363635
aF-0.08888888888888889
aF-0.10869565217391304
aF-0.06382978723404255
aF-0.08333333333333333
aF-0.10204081632653061
aF-0.12
aF-0.13725490196078433
aF-0.15384615384615385
aF-0.11320754716981132
aF-0.07407407407407407
aF-0.09090909090909091
aF-0.05357142857142857
aF-0.017543859649122806
aF-0.034482758620689655
aF-0.05084745762711865
aF-0.06666666666666667
aF-0.08196721311475409
aF-0.04838709677419355
aF-0.06349206349206349
aF-0.03125
aF0.0
aF-0.015151515151515152
aF-0.029850746268656716
aF0.0
aF-0.014492753623188406
aF-0.02857142857142857
aF-0.04225352112676056
aF-0.013888888888888888
aF-0.0273972602739726
aF-0.04054054054054054
aF-0.05333333333333334
aF-0.02631578947368421
aF-0.03896103896103896
aF-0.05128205128205128
aF-0.06329113924050633
aF-0.0375
aF-0.012345679012345678
aF0.012195121951219513
aF0.0
aF-0.03571428571428571
aF-0.011764705882352941
aF-0.046511627906976744
aF-0.022988505747126436
aF0.0
aF-0.033707865168539325
aF-0.044444444444444446
aF-0.02197802197802198
aF0.0
aF-0.010752688172043012
aF0.010638297872340425
aF0.0
aF-0.010416666666666666
aF-0.020618556701030927
aF-0.030612244897959183
aF-0.010101010101010102
aF-0.04
aF-0.019801980198019802
aF-0.029411764705882353
aF-0.038834951456310676
aF-0.019230769230769232
aF0.0
aF0.018867924528301886
aF0.009345794392523364
aF0.027777777777777776
aF0.01834862385321101
aF0.00909090909090909
aF0.0
aF-0.008928571428571428
aF-0.017699115044247787
aF0.0
aF-0.008695652173913044
aF-0.017241379310344827
aF-0.02564102564102564
aF-0.00847457627118644
aF-0.01680672268907563
aF-0.025
aF-0.03305785123966942
aF-0.040983606557377046
aF-0.024390243902439025
aF-0.03225806451612903
aF-0.04
aF-0.023809523809523808
aF-0.031496062992125984
aF-0.015625
aF-0.023255813953488372
aF-0.007692307692307693
aF-0.030534351145038167
aF-0.03787878787878788
aF-0.022556390977443608
aF-0.029850746268656716
aF-0.014814814814814815
aF-0.022058823529411766
aF-0.029197080291970802
aF-0.014492753623188406
aF-0.02158273381294964
aF-0.007142857142857143
aF-0.014184397163120567
aF-0.02112676056338028
aF-0.027972027972027972
aF-0.034722222222222224
aF-0.020689655172413793
aF-0.0273972602739726
aF-0.034013605442176874
aF-0.05405405405405406
aF-0.06040268456375839
aF-0.06666666666666667
aF-0.0728476821192053
aF-0.07894736842105263
aF-0.08496732026143791
aF-0.09090909090909091
aF-0.07741935483870968
aF-0.0641025641025641
aF-0.07006369426751592
aF-0.0759493670886076
aF-0.08176100628930817
aF-0.0875
aF-0.07453416149068323
aF-0.08024691358024691
aF-0.06748466257668712
aF-0.07317073170731707
aF-0.07878787878787878
aF-0.08433734939759036
aF-0.0718562874251497
aF-0.05952380952380952
aF-0.0650887573964497
aF-0.08235294117647059
aF-0.08771929824561403
aF-0.09302325581395349
aF-0.09826589595375723
aF-0.10344827586206896
aF-0.10857142857142857
aF-0.11363636363636363
aF-0.1016949152542373
aF-0.10674157303370786
aF-0.09497206703910614
aF-0.1
aF-0.08839779005524862
aF-0.09340659340659341
aF-0.09836065573770492
aF-0.10326086956521739
aF-0.0918918918918919
aF-0.0967741935483871
aF-0.10160427807486631
aF-0.10638297872340426
aF-0.09523809523809523
aF-0.1
aF-0.10471204188481675
aF-0.109375
aF-0.11398963730569948
aF-0.10309278350515463
aF-0.1076923076923077
aF-0.11224489795918367
aF-0.10152284263959391
aF-0.09090909090909091
aF-0.08040201005025126
aF-0.085
aF-0.07462686567164178
aF-0.07920792079207921
aF-0.08374384236453201
aF-0.07352941176470588
aF-0.06341463414634146
aF-0.06796116504854369
aF-0.057971014492753624
aF-0.0625
aF-0.06698564593301436
aF-0.08095238095238096
aF-0.07109004739336493
aF-0.07547169811320754
aF-0.06572769953051644
aF-0.056074766355140186
aF-0.06976744186046512
aF-0.06018518518518518
aF-0.05069124423963134
aF-0.05504587155963303
aF-0.0593607305936073
aF-0.06363636363636363
aF-0.05429864253393665
aF-0.05855855855855856
aF-0.06278026905829596
aF-0.05357142857142857
aF-0.044444444444444446
aF-0.048672566371681415
aF-0.039647577092511016
aF-0.043859649122807015
aF-0.034934497816593885
aF-0.0391304347826087
aF-0.04329004329004329
aF-0.034482758620689655
aF-0.03862660944206009
aF-0.042735042735042736
aF-0.04680851063829787
aF-0.05084745762711865
aF-0.05485232067510549
aF-0.058823529411764705
aF-0.06276150627615062
aF-0.06666666666666667
aF-0.07053941908713693
aF-0.06198347107438017
aF-0.06584362139917696
aF-0.05737704918032787
aF-0.061224489795918366
aF-0.06504065040650407
aF-0.06882591093117409
aF-0.06048387096774194
aF-0.0642570281124498
aF-0.076
aF-0.06772908366533864
aF-0.07142857142857142
aF-0.07509881422924901
aF-0.06692913385826772
aF-0.07058823529411765
aF-0.07421875
aF-0.07782101167315175
aF-0.08139534883720931
aF-0.07335907335907337
aF-0.07692307692307693
aF-0.06896551724137931
aF-0.07251908396946564
aF-0.07604562737642585
aF-0.06818181818181818
aF-0.07169811320754717
aF-0.07518796992481203
aF-0.07865168539325842
aF-0.0708955223880597
aF-0.06319702602230483
aF-0.06666666666666667
aF-0.07749077490774908
aF-0.08088235294117647
aF-0.07326007326007326
aF-0.07664233576642336
aF-0.08
aF-0.08333333333333333
aF-0.07581227436823104
aF-0.07913669064748201
aF-0.07168458781362007
aF-0.06428571428571428
aF-0.06761565836298933
aF-0.07092198581560284
aF-0.07420494699646643
aF-0.06690140845070422
aF-0.07719298245614035
aF-0.08041958041958042
aF-0.07317073170731707
aF-0.06597222222222222
aF-0.06920415224913495
aF-0.07241379310344828
aF-0.07560137457044673
aF-0.0684931506849315
aF-0.07167235494880546
aF-0.07482993197278912
aF-0.07796610169491526
aF-0.08108108108108109
aF-0.08417508417508418
aF-0.087248322147651
aF-0.0903010033444816
aF-0.09333333333333334
aF-0.09634551495016612
aF-0.09933774834437085
aF-0.10231023102310231
aF-0.09539473684210527
aF-0.09836065573770492
aF-0.10130718954248366
aF-0.09446254071661238
aF-0.08766233766233766
aF-0.08090614886731391
aF-0.07419354838709677
aF-0.07717041800643087
aF-0.07051282051282051
aF-0.07348242811501597
aF-0.07643312101910828
aF-0.07936507936507936
aF-0.08227848101265822
aF-0.08517350157728706
aF-0.07861635220125786
aF-0.08150470219435736
aF-0.075
aF-0.06853582554517133
aF-0.07142857142857142
aF-0.07430340557275542
aF-0.06790123456790123
aF-0.07076923076923076
aF-0.06441717791411043
aF-0.0581039755351682
aF-0.051829268292682924
aF-0.04559270516717325
aF-0.03939393939393939
aF-0.03323262839879154
aF-0.03614457831325301
aF-0.03903903903903904
aF-0.041916167664670656
aF-0.04477611940298507
aF-0.03869047619047619
aF-0.032640949554896145
aF-0.026627218934911243
aF-0.02064896755162242
aF-0.029411764705882353
aF-0.03225806451612903
aF-0.02631578947368421
aF-0.03498542274052478
aF-0.029069767441860465
aF-0.02318840579710145
aF-0.02601156069364162
aF-0.02881844380403458
aF-0.022988505747126436
aF-0.025787965616045846
aF-0.02857142857142857
aF-0.03133903133903134
aF-0.03409090909090909
aF-0.036827195467422094
aF-0.03954802259887006
aF-0.03380281690140845
aF-0.042134831460674156
aF-0.04481792717086835
aF-0.04748603351955307
aF-0.05013927576601671
aF-0.044444444444444446
aF-0.04709141274238227
aF-0.049723756906077346
aF-0.05785123966942149
aF-0.0521978021978022
aF-0.04657534246575343
aF-0.040983606557377046
aF-0.043596730245231606
aF-0.03804347826086957
aF-0.04065040650406504
aF-0.043243243243243246
aF-0.04582210242587601
aF-0.04032258064516129
aF-0.03485254691689008
aF-0.0374331550802139
aF-0.04
aF-0.034574468085106384
aF-0.029177718832891247
aF-0.031746031746031744
aF-0.03430079155672823
aF-0.03684210526315789
aF-0.031496062992125984
aF-0.034031413612565446
aF-0.03655352480417755
aF-0.03125
aF-0.025974025974025976
aF-0.03367875647668394
aF-0.028423772609819122
aF-0.030927835051546393
aF-0.038560411311053984
aF-0.041025641025641026
aF-0.03580562659846547
aF-0.03826530612244898
aF-0.04071246819338423
aF-0.04314720812182741
aF-0.04556962025316456
aF-0.04040404040404041
aF-0.04785894206549118
aF-0.05025125628140704
aF-0.045112781954887216
aF-0.04
aF-0.04239401496259352
aF-0.04477611940298507
aF-0.04714640198511166
aF-0.04207920792079208
aF-0.044444444444444446
aF-0.03940886699507389
aF-0.0343980343980344
aF-0.03676470588235294
aF-0.039119804400977995
aF-0.03414634146341464
aF-0.0364963503649635
aF-0.038834951456310676
aF-0.03389830508474576
aF-0.028985507246376812
aF-0.03132530120481928
aF-0.026442307692307692
aF-0.02877697841726619
aF-0.023923444976076555
aF-0.01909307875894988
aF-0.014285714285714285
aF-0.0166270783847981
aF-0.018957345971563982
aF-0.014184397163120567
aF-0.01650943396226415
aF-0.018823529411764704
aF-0.02112676056338028
aF-0.01639344262295082
aF-0.011682242990654205
aF-0.006993006993006993
aF-0.002325581395348837
aF-0.004640371229698376
aF-0.006944444444444444
aF-0.013856812933025405
aF-0.016129032258064516
aF-0.011494252873563218
aF-0.013761467889908258
aF-0.020594965675057208
aF-0.01598173515981735
aF-0.018223234624145785
aF-0.020454545454545454
aF-0.022675736961451247
aF-0.024886877828054297
aF-0.02708803611738149
aF-0.02927927927927928
aF-0.03146067415730337
aF-0.033632286995515695
aF-0.035794183445190156
aF-0.03794642857142857
aF-0.0400890868596882
aF-0.035555555555555556
aF-0.037694013303769404
aF-0.033185840707964605
aF-0.02869757174392936
aF-0.024229074889867842
aF-0.01978021978021978
aF-0.015350877192982455
aF-0.0175054704595186
aF-0.013100436681222707
aF-0.008714596949891068
aF-0.004347826086956522
aF-0.006507592190889371
aF-0.008658008658008658
aF-0.01079913606911447
aF-0.00646551724137931
aF-0.012903225806451613
aF-0.008583690987124463
aF-0.010706638115631691
aF-0.01282051282051282
aF-0.019189765458422176
aF-0.02127659574468085
aF-0.016985138004246284
aF-0.019067796610169493
aF-0.014799154334038054
aF-0.010548523206751054
aF-0.01263157894736842
aF-0.014705882352941176
aF-0.020964360587002098
aF-0.02301255230125523
aF-0.025052192066805846
aF-0.027083333333333334
aF-0.029106029106029108
aF-0.024896265560165973
aF-0.020703933747412008
aF-0.022727272727272728
aF-0.024742268041237112
aF-0.0205761316872428
aF-0.022587268993839837
aF-0.02459016393442623
aF-0.026584867075664622
aF-0.02857142857142857
aF-0.024439918533604887
aF-0.026422764227642278
aF-0.028397565922920892
aF-0.030364372469635626
aF-0.03232323232323232
aF-0.038306451612903226
aF-0.03420523138832998
aF-0.030120481927710843
aF-0.03206412825651302
aF-0.034
aF-0.029940119760479042
aF-0.035856573705179286
aF-0.03180914512922465
aF-0.027777777777777776
aF-0.0297029702970297
aF-0.03162055335968379
aF-0.03353057199211045
aF-0.02952755905511811
aF-0.03143418467583497
aF-0.03333333333333333
aF-0.03522504892367906
aF-0.037109375
aF-0.03313840155945419
aF-0.03501945525291829
aF-0.036893203883495145
aF-0.03294573643410853
aF-0.029013539651837523
aF-0.03088803088803089
aF-0.03275529865125241
aF-0.028846153846153848
aF-0.02495201535508637
aF-0.02681992337164751
aF-0.022944550669216062
aF-0.02480916030534351
aF-0.02666666666666667
aF-0.028517110266159697
aF-0.030360531309297913
aF-0.032196969696969696
aF-0.02835538752362949
aF-0.024528301886792454
aF-0.02071563088512241
aF-0.022556390977443608
aF-0.024390243902439025
aF-0.026217228464419477
aF-0.028037383177570093
aF-0.029850746268656716
aF-0.03165735567970205
aF-0.027881040892193308
aF-0.02411873840445269
aF-0.025925925925925925
aF-0.027726432532347505
aF-0.02952029520295203
aF-0.03130755064456722
aF-0.03308823529411765
aF-0.03486238532110092
aF-0.03663003663003663
aF-0.038391224862888484
aF-0.03467153284671533
aF-0.030965391621129327
aF-0.03272727272727273
aF-0.034482758620689655
aF-0.036231884057971016
aF-0.0379746835443038
aF-0.039711191335740074
aF-0.036036036036036036
aF-0.03237410071942446
aF-0.03411131059245961
aF-0.035842293906810034
aF-0.03220035778175313
aF-0.02857142857142857
aF-0.030303030303030304
aF-0.03202846975088968
aF-0.03374777975133215
aF-0.03546099290780142
aF-0.03185840707964602
aF-0.03356890459363958
aF-0.03527336860670194
aF-0.03697183098591549
aF-0.03866432337434095
aF-0.04035087719298246
aF-0.03677758318739054
aF-0.038461538461538464
aF-0.034904013961605584
aF-0.0313588850174216
aF-0.03304347826086956
aF-0.034722222222222224
aF-0.036395147313691506
aF-0.03806228373702422
aF-0.03454231433506045
aF-0.03620689655172414
aF-0.0378657487091222
aF-0.03951890034364261
aF-0.0411663807890223
aF-0.04280821917808219
aF-0.044444444444444446
aF-0.040955631399317405
aF-0.04258943781942078
aF-0.04421768707482993
aF-0.04074702886247878
aF-0.0423728813559322
aF-0.043993231810490696
aF-0.04054054054054054
aF-0.04215851602023609
aF-0.03872053872053872
aF-0.040336134453781515
aF-0.04194630872483222
aF-0.04355108877721943
aF-0.0451505016722408
aF-0.041736227045075125
aF-0.043333333333333335
aF-0.04492512479201331
aF-0.04152823920265781
aF-0.04311774461028192
aF-0.04470198675496689
aF-0.04628099173553719
aF-0.04785478547854786
aF-0.044481054365733116
aF-0.046052631578947366
aF-0.047619047619047616
aF-0.04426229508196721
aF-0.04091653027823241
aF-0.03758169934640523
aF-0.03915171288743882
aF-0.04071661237785016
aF-0.04227642276422764
aF-0.04383116883116883
aF-0.04051863857374392
aF-0.042071197411003236
aF-0.04361873990306947
aF-0.04516129032258064
aF-0.0499194847020934
aF-0.05144694533762058
aF-0.052969502407704656
aF-0.049679487179487176
aF-0.0512
aF-0.04792332268370607
aF-0.049441786283891544
aF-0.050955414012738856
aF-0.05246422893481717
aF-0.049206349206349205
aF-0.05071315372424723
aF-0.04746835443037975
aF-0.04897314375987362
aF-0.050473186119873815
aF-0.05196850393700787
aF-0.05345911949685535
aF-0.054945054945054944
aF-0.05172413793103448
aF-0.053208137715179966
aF-0.05
aF-0.046801872074883
aF-0.04361370716510903
aF-0.04510108864696734
aF-0.04192546583850932
aF-0.043410852713178294
aF-0.04024767801857585
aF-0.04173106646058733
aF-0.043209876543209874
aF-0.04776579352850539
aF-0.04923076923076923
aF-0.05069124423963134
aF-0.05214723926380368
aF-0.05666156202143951
aF-0.053516819571865444
aF-0.050381679389312976
aF-0.051829268292682924
aF-0.0487062404870624
aF-0.05015197568389058
aF-0.051593323216995446
aF-0.05303030303030303
aF-0.05446293494704992
aF-0.055891238670694864
aF-0.05731523378582202
aF-0.061746987951807226
aF-0.06315789473684211
aF-0.06456456456456457
aF-0.06146926536731634
aF-0.06287425149700598
aF-0.06427503736920777
aF-0.06567164179104477
aF-0.06706408345752608
aF-0.06398809523809523
aF-0.06537890044576523
aF-0.06676557863501484
aF-0.0637037037037037
aF-0.060650887573964495
aF-0.0620384047267356
aF-0.058997050147492625
aF-0.060382916053019146
aF-0.061764705882352944
aF-0.0631424375917768
aF-0.060117302052785926
aF-0.06149341142020498
aF-0.05847953216374269
aF-0.06277372262773723
aF-0.0641399416909621
aF-0.0611353711790393
aF-0.0625
aF-0.06386066763425254
aF-0.06521739130434782
aF-0.0694645441389291
aF-0.06647398843930635
aF-0.06782106782106782
aF-0.069164265129683
aF-0.07050359712230216
aF-0.07183908045977011
aF-0.07317073170731707
aF-0.07449856733524356
aF-0.07582260371959942
aF-0.07285714285714286
aF-0.07417974322396577
aF-0.07122507122507123
aF-0.07254623044096728
aF-0.06960227272727272
aF-0.07092198581560284
aF-0.0679886685552408
aF-0.06930693069306931
aF-0.06638418079096045
aF-0.06770098730606489
aF-0.0647887323943662
aF-0.06188466947960619
aF-0.06601123595505617
aF-0.06311360448807854
aF-0.06022408963585434
aF-0.06153846153846154
aF-0.06284916201117319
aF-0.06415620641562064
aF-0.06128133704735376
aF-0.0584144645340751
aF-0.05555555555555555
aF-0.056865464632454926
aF-0.05817174515235457
aF-0.05532503457814661
aF-0.05662983425414365
aF-0.05379310344827586
aF-0.05096418732782369
aF-0.052269601100412656
aF-0.04945054945054945
aF-0.04663923182441701
aF-0.04794520547945205
aF-0.049247606019151846
aF-0.04644808743169399
aF-0.04365620736698499
aF-0.04495912806539509
aF-0.04625850340136054
aF-0.043478260869565216
aF-0.04477611940298507
aF-0.04607046070460705
aF-0.04330175913396482
aF-0.0445945945945946
aF-0.04588394062078273
aF-0.04716981132075472
aF-0.04845222072678331
aF-0.04973118279569892
aF-0.04697986577181208
aF-0.04825737265415549
aF-0.04551539491298527
aF-0.0427807486631016
aF-0.04005340453938585
aF-0.04133333333333333
aF-0.03861517976031957
aF-0.0398936170212766
aF-0.03718459495351926
aF-0.04111405835543767
aF-0.0423841059602649
aF-0.04365079365079365
aF-0.04095112285336856
aF-0.04221635883905013
aF-0.039525691699604744
aF-0.03684210526315789
aF-0.03810775295663601
aF-0.03937007874015748
aF-0.04062909567496723
aF-0.041884816753926704
aF-0.043137254901960784
aF-0.04046997389033943
aF-0.03780964797913951
aF-0.0390625
aF-0.04291287386215865
aF-0.04415584415584416
aF-0.04539559014267185
aF-0.046632124352331605
aF-0.047865459249676584
aF-0.04909560723514212
aF-0.05032258064516129
aF-0.05154639175257732
aF-0.0489060489060489
aF-0.05012853470437018
aF-0.051347881899871634
aF-0.04871794871794872
aF-0.046094750320102434
aF-0.043478260869565216
aF-0.04469987228607918
aF-0.042091836734693876
aF-0.04331210191082802
aF-0.04071246819338423
aF-0.04193138500635324
aF-0.04314720812182741
aF-0.044359949302915085
aF-0.04556962025316456
aF-0.04677623261694058
aF-0.04419191919191919
aF-0.04539722572509458
aF-0.04659949622166247
aF-0.0440251572327044
aF-0.04522613065326633
aF-0.04642409033877039
aF-0.047619047619047616
aF-0.04881101376720901
aF-0.05
aF-0.05118601747815231
aF-0.05236907730673317
aF-0.053549190535491904
aF-0.05472636815920398
aF-0.055900621118012424
aF-0.05334987593052109
aF-0.05080545229244114
aF-0.05198019801980198
aF-0.049443757725587144
aF-0.050617283950617285
aF-0.051787916152897656
aF-0.05295566502463054
aF-0.05412054120541206
aF-0.051597051597051594
aF-0.049079754601226995
aF-0.04656862745098039
aF-0.04773561811505508
aF-0.04523227383863081
aF-0.042735042735042736
aF-0.04024390243902439
aF-0.04141291108404385
aF-0.038929440389294405
aF-0.040097205346294046
aF-0.03762135922330097
aF-0.03878787878787879
aF-0.039951573849878935
aF-0.041112454655380895
aF-0.03864734299516908
aF-0.03618817852834741
aF-0.033734939759036145
aF-0.03489771359807461
aF-0.036057692307692304
aF-0.03721488595438175
aF-0.03836930455635491
aF-0.03592814371257485
aF-0.03349282296650718
aF-0.03464755077658303
aF-0.03579952267303103
aF-0.03694874851013111
aF-0.0380952380952381
aF-0.039239001189060645
aF-0.040380047505938245
aF-0.04151838671411625
aF-0.045023696682464455
aF-0.046153846153846156
aF-0.04728132387706856
aF-0.0448642266824085
aF-0.045990566037735846
aF-0.04711425206124853
aF-0.04823529411764706
aF-0.05170387779083431
aF-0.0528169014084507
aF-0.053927315357561546
aF-0.05503512880562061
aF-0.05263157894736842
aF-0.053738317757009345
aF-0.05484247374562427
aF-0.05244755244755245
aF-0.05355064027939464
aF-0.05465116279069768
aF-0.05574912891986063
aF-0.05336426914153132
aF-0.054461181923522596
aF-0.05555555555555555
aF-0.05317919075144509
aF-0.054272517321016164
aF-0.05767012687427912
aF-0.0587557603686636
aF-0.06214039125431531
aF-0.06321839080459771
aF-0.0642939150401837
aF-0.06536697247706422
aF-0.06300114547537228
aF-0.06407322654462243
aF-0.06514285714285714
aF-0.06621004566210045
aF-0.06385404789053592
aF-0.06492027334851937
aF-0.06598407281001138
aF-0.06704545454545455
aF-0.06469920544835414
aF-0.06235827664399093
aF-0.06342015855039637
aF-0.06108597285067873
aF-0.062146892655367235
aF-0.06320541760722348
aF-0.060879368658399095
aF-0.05855855855855856
aF-0.0562429696287964
aF-0.05730337078651685
aF-0.05499438832772166
aF-0.05605381165919283
aF-0.0593505039193729
aF-0.06040268456375839
aF-0.061452513966480445
aF-0.0625
aF-0.06354515050167224
aF-0.0645879732739421
aF-0.06562847608453838
aF-0.06333333333333334
aF-0.06104328523862375
aF-0.06208425720620843
aF-0.059800664451827246
aF-0.06084070796460177
aF-0.06408839779005525
aF-0.06512141280353201
aF-0.06615214994487321
aF-0.0671806167400881
aF-0.06820682068206821
aF-0.06593406593406594
aF-0.06695938529088913
aF-0.06469298245614036
aF-0.0624315443592552
aF-0.06345733041575492
aF-0.06666666666666667
aF-0.06768558951965066
aF-0.06870229007633588
aF-0.06971677559912855
aF-0.07072905331882481
aF-0.07173913043478261
aF-0.06948968512486428
aF-0.06724511930585683
aF-0.06825568797399784
aF-0.06926406926406926
aF-0.06702702702702702
aF-0.06479481641468683
aF-0.06580366774541532
aF-0.06357758620689655
aF-0.06458557588805167
aF-0.06559139784946237
aF-0.06337271750805586
aF-0.06437768240343347
aF-0.06216505894962487
aF-0.06316916488222699
aF-0.06417112299465241
aF-0.06196581196581197
aF-0.05976520811099253
aF-0.057569296375266525
aF-0.06070287539936102
aF-0.06170212765957447
aF-0.06269925611052073
aF-0.06369426751592357
aF-0.061505832449628844
aF-0.0625
aF-0.06349206349206349
aF-0.0613107822410148
aF-0.06230200633579725
aF-0.06329113924050633
aF-0.0642781875658588
aF-0.06210526315789474
aF-0.05993690851735016
aF-0.06092436974789916
aF-0.06190975865687303
aF-0.059748427672955975
aF-0.060732984293193716
aF-0.06171548117154812
aF-0.05956112852664577
aF-0.060542797494780795
aF-0.058394160583941604
aF-0.059375
aF-0.060353798126951096
aF-0.061330561330561334
aF-0.06230529595015576
aF-0.06327800829875518
aF-0.061139896373056994
aF-0.059006211180124224
aF-0.05687693898655636
aF-0.05785123966942149
aF-0.0608875128998968
aF-0.061855670103092786
aF-0.06282183316168898
aF-0.060699588477366256
aF-0.05858170606372045
aF-0.059548254620123205
aF-0.057435897435897436
aF-0.0584016393442623
aF-0.0593654042988741
aF-0.06237218813905931
aF-0.06332992849846783
aF-0.06428571428571428
aF-0.0652395514780836
aF-0.06313645621181263
aF-0.061037639877924724
aF-0.05894308943089431
aF-0.05989847715736041
aF-0.060851926977687626
aF-0.05876393110435663
aF-0.05668016194331984
aF-0.054600606673407485
aF-0.05555555555555555
aF-0.056508577194752774
aF-0.057459677419354836
aF-0.0553877139979859
aF-0.056338028169014086
aF-0.054271356783919596
aF-0.05220883534136546
aF-0.05315947843530592
aF-0.05110220440881764
aF-0.05205205205205205
aF-0.053
aaI1000
a.