(lp0
(lp1
F2.0
aF2.0
aF1.0
aF0.5
aF0.2
aF0.0
aF-0.14285714285714285
aF-0.25
aF0.0
aF0.2
aF0.36363636363636365
aF0.25
aF0.15384615384615385
aF0.07142857142857142
aF0.0
aF-0.0625
aF-0.11764705882352941
aF-0.16666666666666666
aF-0.21052631578947367
aF-0.25
aF-0.2857142857142857
aF-0.18181818181818182
aF-0.21739130434782608
aF-0.125
aF-0.16
aF-0.19230769230769232
aF-0.1111111111111111
aF-0.03571428571428571
aF-0.06896551724137931
aF0.0
aF-0.03225806451612903
aF-0.0625
aF-0.09090909090909091
aF-0.11764705882352941
aF-0.14285714285714285
aF-0.08333333333333333
aF-0.10810810810810811
aF-0.13157894736842105
aF-0.15384615384615385
aF-0.175
aF-0.1951219512195122
aF-0.14285714285714285
aF-0.09302325581395349
aF-0.11363636363636363
aF-0.13333333333333333
aF-0.15217391304347827
aF-0.1702127659574468
aF-0.125
aF-0.14285714285714285
aF-0.16
aF-0.11764705882352941
aF-0.1346153846153846
aF-0.1509433962264151
aF-0.16666666666666666
aF-0.18181818181818182
aF-0.19642857142857142
aF-0.15789473684210525
aF-0.1724137931034483
aF-0.13559322033898305
aF-0.15
aF-0.16393442622950818
aF-0.1774193548387097
aF-0.19047619047619047
aF-0.203125
aF-0.16923076923076924
aF-0.18181818181818182
aF-0.14925373134328357
aF-0.16176470588235295
aF-0.2028985507246377
aF-0.21428571428571427
aF-0.22535211267605634
aF-0.19444444444444445
aF-0.2054794520547945
aF-0.21621621621621623
aF-0.22666666666666666
aF-0.19736842105263158
aF-0.2077922077922078
aF-0.1794871794871795
aF-0.1518987341772152
aF-0.1625
aF-0.1728395061728395
aF-0.14634146341463414
aF-0.1566265060240964
aF-0.13095238095238096
aF-0.10588235294117647
aF-0.11627906976744186
aF-0.09195402298850575
aF-0.06818181818181818
aF-0.07865168539325842
aF-0.08888888888888889
aF-0.0989010989010989
aF-0.10869565217391304
aF-0.11827956989247312
aF-0.1276595744680851
aF-0.10526315789473684
aF-0.11458333333333333
aF-0.09278350515463918
aF-0.10204081632653061
aF-0.08080808080808081
aF-0.09
aF-0.09900990099009901
aF-0.10784313725490197
aF-0.11650485436893204
aF-0.09615384615384616
aF-0.0761904761904762
aF-0.08490566037735849
aF-0.06542056074766354
aF-0.046296296296296294
aF-0.027522935779816515
aF-0.03636363636363636
aF-0.018018018018018018
aF-0.026785714285714284
aF-0.035398230088495575
aF-0.043859649122807015
aF-0.02608695652173913
aF-0.008620689655172414
aF0.008547008547008548
aF0.025423728813559324
aF0.01680672268907563
aF0.03333333333333333
aF0.049586776859504134
aF0.06557377049180328
aF0.056910569105691054
aF0.04838709677419355
aF0.064
aF0.05555555555555555
aF0.047244094488188976
aF0.0390625
aF0.05426356589147287
aF0.06923076923076923
aF0.061068702290076333
aF0.05303030303030303
aF0.05263157894736842
aF0.04477611940298507
aF0.05925925925925926
aF0.07352941176470588
aF0.06569343065693431
aF0.057971014492753624
aF0.050359712230215826
aF0.06428571428571428
aF0.05673758865248227
aF0.04929577464788732
aF0.04195804195804196
aF0.034722222222222224
aF0.013793103448275862
aF0.00684931506849315
aF0.0
aF-0.02027027027027027
aF-0.026845637583892617
aF-0.03333333333333333
aF-0.019867549668874173
aF-0.02631578947368421
aF-0.032679738562091505
aF-0.03896103896103896
aF-0.025806451612903226
aF-0.03205128205128205
aF-0.03821656050955414
aF-0.056962025316455694
aF-0.0440251572327044
aF-0.03125
aF-0.018633540372670808
aF-0.024691358024691357
aF-0.012269938650306749
aF-0.018292682926829267
aF-0.024242424242424242
aF-0.030120481927710843
aF-0.03592814371257485
aF-0.041666666666666664
aF-0.047337278106508875
aF-0.052941176470588235
aF-0.05847953216374269
aF-0.06395348837209303
aF-0.05202312138728324
aF-0.040229885057471264
aF-0.045714285714285714
aF-0.0625
aF-0.06779661016949153
aF-0.07303370786516854
aF-0.061452513966480445
aF-0.05
aF-0.03867403314917127
aF-0.027472527472527472
aF-0.03278688524590164
aF-0.021739130434782608
aF-0.03783783783783784
aF-0.026881720430107527
aF-0.03208556149732621
aF-0.02127659574468085
aF-0.037037037037037035
aF-0.042105263157894736
aF-0.04712041884816754
aF-0.052083333333333336
aF-0.05699481865284974
aF-0.061855670103092786
aF-0.05128205128205128
aF-0.05612244897959184
aF-0.06091370558375635
aF-0.06565656565656566
aF-0.05527638190954774
aF-0.06
aF-0.06467661691542288
aF-0.06930693069306931
aF-0.07389162561576355
aF-0.0784313725490196
aF-0.06829268292682927
aF-0.07281553398058252
aF-0.07729468599033816
aF-0.08173076923076923
aF-0.0861244019138756
aF-0.0761904761904762
aF-0.08056872037914692
aF-0.08490566037735849
aF-0.07511737089201878
aF-0.0794392523364486
aF-0.08372093023255814
aF-0.08796296296296297
aF-0.09216589861751152
aF-0.08256880733944955
aF-0.0730593607305936
aF-0.06363636363636363
aF-0.06787330316742081
aF-0.08108108108108109
aF-0.07174887892376682
aF-0.07589285714285714
aF-0.06666666666666667
aF-0.07079646017699115
aF-0.07488986784140969
aF-0.07894736842105263
aF-0.08296943231441048
aF-0.08695652173913043
aF-0.09090909090909091
aF-0.08189655172413793
aF-0.08583690987124463
aF-0.09829059829059829
aF-0.08936170212765958
aF-0.08050847457627118
aF-0.08438818565400844
aF-0.07563025210084033
aF-0.0794979079497908
aF-0.07083333333333333
aF-0.06224066390041494
aF-0.06611570247933884
aF-0.06995884773662552
aF-0.06147540983606557
aF-0.053061224489795916
aF-0.044715447154471545
aF-0.05668016194331984
aF-0.06048387096774194
aF-0.0642570281124498
aF-0.068
aF-0.07171314741035857
aF-0.07539682539682539
aF-0.06719367588932806
aF-0.07086614173228346
aF-0.07450980392156863
aF-0.078125
aF-0.08171206225680934
aF-0.08527131782945736
aF-0.0888030888030888
aF-0.08076923076923077
aF-0.0842911877394636
aF-0.08778625954198473
aF-0.09125475285171103
aF-0.0946969696969697
aF-0.09811320754716982
aF-0.09022556390977443
aF-0.08239700374531835
aF-0.07462686567164178
aF-0.06691449814126393
aF-0.07037037037037037
aF-0.07380073800738007
aF-0.07720588235294118
aF-0.08058608058608059
aF-0.08394160583941605
aF-0.08727272727272728
aF-0.09057971014492754
aF-0.09386281588447654
aF-0.08633093525179857
aF-0.08960573476702509
aF-0.08214285714285714
aF-0.08540925266903915
aF-0.08865248226950355
aF-0.09187279151943463
aF-0.09507042253521127
aF-0.08771929824561403
aF-0.08041958041958042
aF-0.09059233449477352
aF-0.09375
aF-0.09688581314878893
aF-0.1
aF-0.10309278350515463
aF-0.11301369863013698
aF-0.10580204778156997
aF-0.09863945578231292
aF-0.1016949152542373
aF-0.10472972972972973
aF-0.10774410774410774
aF-0.11073825503355705
aF-0.11371237458193979
aF-0.11666666666666667
aF-0.12624584717607973
aF-0.11920529801324503
aF-0.11221122112211221
aF-0.11513157894736842
aF-0.10819672131147541
aF-0.10130718954248366
aF-0.10423452768729642
aF-0.10714285714285714
aF-0.11003236245954692
aF-0.11290322580645161
aF-0.1157556270096463
aF-0.11858974358974358
aF-0.12140575079872204
aF-0.12420382165605096
aF-0.12698412698412698
aF-0.1360759493670886
aF-0.12933753943217666
aF-0.1320754716981132
aF-0.13479623824451412
aF-0.1375
aF-0.1308411214953271
aF-0.13354037267080746
aF-0.13622291021671826
aF-0.12962962962962962
aF-0.12307692307692308
aF-0.1165644171779141
aF-0.11009174311926606
aF-0.11890243902439024
aF-0.12158054711246201
aF-0.12424242424242424
aF-0.1268882175226586
aF-0.12951807228915663
aF-0.12312312312312312
aF-0.12574850299401197
aF-0.12835820895522387
aF-0.12202380952380952
aF-0.12462908011869436
aF-0.11834319526627218
aF-0.12094395280235988
aF-0.11470588235294117
aF-0.11730205278592376
aF-0.11988304093567251
aF-0.12244897959183673
aF-0.125
aF-0.13333333333333333
aF-0.13583815028901733
aF-0.138328530259366
aF-0.14080459770114942
aF-0.14326647564469913
aF-0.1457142857142857
aF-0.1396011396011396
aF-0.13352272727272727
aF-0.1359773371104816
aF-0.1384180790960452
aF-0.1323943661971831
aF-0.12640449438202248
aF-0.12885154061624648
aF-0.13128491620111732
aF-0.12534818941504178
aF-0.11944444444444445
aF-0.12188365650969529
aF-0.1298342541436464
aF-0.1322314049586777
aF-0.1346153846153846
aF-0.136986301369863
aF-0.13934426229508196
aF-0.1335149863760218
aF-0.12771739130434784
aF-0.13008130081300814
aF-0.12432432432432433
aF-0.12668463611859837
aF-0.12096774193548387
aF-0.12332439678284182
aF-0.12566844919786097
aF-0.128
aF-0.13031914893617022
aF-0.13793103448275862
aF-0.13227513227513227
aF-0.1345646437994723
aF-0.12894736842105264
aF-0.12335958005249344
aF-0.1256544502617801
aF-0.1279373368146214
aF-0.12239583333333333
aF-0.12467532467532468
aF-0.12694300518134716
aF-0.12919896640826872
aF-0.13144329896907217
aF-0.12596401028277635
aF-0.1282051282051282
aF-0.13043478260869565
aF-0.1326530612244898
aF-0.13486005089058525
aF-0.13705583756345177
aF-0.13924050632911392
aF-0.13383838383838384
aF-0.13602015113350127
aF-0.13819095477386933
aF-0.14035087719298245
aF-0.1425
aF-0.14463840399002495
aF-0.14676616915422885
aF-0.1488833746898263
aF-0.15099009900990099
aF-0.145679012345679
aF-0.1477832512315271
aF-0.14250614250614252
aF-0.14460784313725492
aF-0.1466992665036675
aF-0.14146341463414633
aF-0.1435523114355231
aF-0.1383495145631068
aF-0.14043583535108958
aF-0.14251207729468598
aF-0.14457831325301204
aF-0.1466346153846154
aF-0.14148681055155876
aF-0.13636363636363635
aF-0.13126491646778043
aF-0.13333333333333333
aF-0.13539192399049882
aF-0.13744075829383887
aF-0.13947990543735225
aF-0.14150943396226415
aF-0.13647058823529412
aF-0.13145539906103287
aF-0.13114754098360656
aF-0.1261682242990654
aF-0.12121212121212122
aF-0.12325581395348838
aF-0.11832946635730858
aF-0.12037037037037036
aF-0.12702078521939955
aF-0.12211981566820276
aF-0.12413793103448276
aF-0.11926605504587157
aF-0.12128146453089245
aF-0.11643835616438356
aF-0.11845102505694761
aF-0.11363636363636363
aF-0.11564625850340136
aF-0.11764705882352941
aF-0.11963882618510158
aF-0.11486486486486487
aF-0.11685393258426967
aF-0.11883408071748879
aF-0.12080536912751678
aF-0.12276785714285714
aF-0.11804008908685969
aF-0.12444444444444444
aF-0.12638580931263857
aF-0.12831858407079647
aF-0.13024282560706402
aF-0.12555066079295155
aF-0.12747252747252746
aF-0.12280701754385964
aF-0.12910284463894967
aF-0.13100436681222707
aF-0.1328976034858388
aF-0.13478260869565217
aF-0.13665943600867678
aF-0.13852813852813853
aF-0.13390928725701945
aF-0.12931034482758622
aF-0.12473118279569892
aF-0.12017167381974249
aF-0.11563169164882227
aF-0.1111111111111111
aF-0.11300639658848614
aF-0.10851063829787234
aF-0.11040339702760085
aF-0.11228813559322035
aF-0.10782241014799154
aF-0.10970464135021098
aF-0.11157894736842106
aF-0.1134453781512605
aF-0.11530398322851153
aF-0.1108786610878661
aF-0.1127348643006263
aF-0.11458333333333333
aF-0.11642411642411643
aF-0.11825726141078838
aF-0.12008281573498965
aF-0.12190082644628099
aF-0.11752577319587629
aF-0.11316872427983539
aF-0.11498973305954825
aF-0.1168032786885246
aF-0.11247443762781185
aF-0.11428571428571428
aF-0.11608961303462322
aF-0.11788617886178862
aF-0.11967545638945233
aF-0.11538461538461539
aF-0.11717171717171718
aF-0.11895161290322581
aF-0.12072434607645875
aF-0.11646586345381527
aF-0.11823647294589178
aF-0.114
aF-0.1157684630738523
aF-0.11752988047808766
aF-0.11332007952286283
aF-0.10912698412698413
aF-0.11089108910891089
aF-0.11264822134387352
aF-0.10848126232741617
aF-0.11023622047244094
aF-0.11198428290766209
aF-0.10784313725490197
aF-0.10371819960861056
aF-0.10546875
aF-0.10136452241715399
aF-0.09727626459143969
aF-0.1029126213592233
aF-0.10465116279069768
aF-0.10058027079303675
aF-0.10231660231660232
aF-0.10404624277456648
aF-0.10576923076923077
aF-0.1017274472168906
aF-0.10344827586206896
aF-0.10516252390057361
aF-0.10687022900763359
aF-0.10285714285714286
aF-0.10456273764258556
aF-0.1062618595825427
aF-0.10795454545454546
aF-0.10396975425330812
aF-0.10566037735849057
aF-0.10734463276836158
aF-0.10902255639097744
aF-0.11069418386491557
aF-0.11235955056179775
aF-0.11401869158878504
aF-0.11567164179104478
aF-0.11731843575418995
aF-0.11895910780669144
aF-0.12059369202226346
aF-0.12222222222222222
aF-0.12384473197781885
aF-0.12546125461254612
aF-0.1270718232044199
aF-0.12316176470588236
aF-0.12477064220183487
aF-0.12087912087912088
aF-0.12248628884826325
aF-0.11861313868613138
aF-0.11475409836065574
aF-0.11090909090909092
aF-0.11252268602540835
aF-0.11413043478260869
aF-0.11030741410488246
aF-0.11191335740072202
aF-0.10810810810810811
aF-0.10431654676258993
aF-0.1059245960502693
aF-0.10752688172043011
aF-0.10912343470483005
aF-0.10535714285714286
aF-0.10695187165775401
aF-0.10854092526690391
aF-0.10479573712255773
aF-0.10106382978723404
aF-0.10265486725663717
aF-0.10424028268551237
aF-0.10582010582010581
aF-0.1073943661971831
aF-0.10896309314586995
aF-0.11052631578947368
aF-0.11208406304728546
aF-0.10839160839160839
aF-0.10471204188481675
aF-0.10627177700348432
aF-0.10782608695652174
aF-0.10416666666666667
aF-0.10571923743500866
aF-0.11072664359861592
aF-0.11226252158894647
aF-0.11379310344827587
aF-0.1153184165232358
aF-0.11683848797250859
aF-0.1183533447684391
aF-0.11472602739726027
aF-0.11623931623931624
aF-0.11774744027303755
aF-0.11925042589437819
aF-0.11564625850340136
aF-0.12054329371816638
aF-0.12203389830508475
aF-0.12351945854483926
aF-0.11993243243243243
aF-0.12141652613827993
aF-0.12626262626262627
aF-0.1226890756302521
aF-0.11912751677852348
aF-0.12060301507537688
aF-0.12207357859531773
aF-0.11853088480801335
aF-0.115
aF-0.11980033277870217
aF-0.1212624584717608
aF-0.12271973466003316
aF-0.12417218543046357
aF-0.1256198347107438
aF-0.12706270627062707
aF-0.128500823723229
aF-0.13322368421052633
aF-0.13464696223316913
aF-0.1360655737704918
aF-0.1407528641571195
aF-0.1454248366013072
aF-0.14192495921696574
aF-0.14332247557003258
aF-0.14471544715447154
aF-0.14123376623376624
aF-0.1426256077795786
aF-0.14401294498381878
aF-0.14054927302100162
aF-0.14193548387096774
aF-0.143317230273752
aF-0.13987138263665594
aF-0.13643659711075443
aF-0.13782051282051283
aF-0.1392
aF-0.14057507987220447
aF-0.1419457735247209
aF-0.14331210191082802
aF-0.14467408585055644
aF-0.14126984126984127
aF-0.14263074484944532
aF-0.13924050632911392
aF-0.1358609794628752
aF-0.13722397476340695
aF-0.13385826771653545
aF-0.13522012578616352
aF-0.13657770800627944
aF-0.13322884012539185
aF-0.13458528951486698
aF-0.13125
aF-0.12792511700468018
aF-0.1292834890965732
aF-0.12597200622083982
aF-0.12732919254658384
aF-0.12868217054263567
aF-0.13003095975232198
aF-0.1267387944358578
aF-0.12808641975308643
aF-0.12480739599383667
aF-0.12615384615384614
aF-0.12749615975422426
aF-0.12423312883435583
aF-0.12557427258805512
aF-0.12232415902140673
aF-0.12366412213740458
aF-0.125
aF-0.1263318112633181
aF-0.1276595744680851
aF-0.12898330804248861
aF-0.1303030303030303
aF-0.13161875945537066
aF-0.13293051359516617
aF-0.13423831070889894
aF-0.1355421686746988
aF-0.1368421052631579
aF-0.13813813813813813
aF-0.13943028485757122
aF-0.13622754491017963
aF-0.13303437967115098
aF-0.13432835820895522
aF-0.13114754098360656
aF-0.1324404761904762
aF-0.1337295690936107
aF-0.13056379821958458
aF-0.13185185185185186
aF-0.13313609467455623
aF-0.1344165435745938
aF-0.13569321533923304
aF-0.13696612665684832
aF-0.13823529411764707
aF-0.13509544787077826
aF-0.13636363636363635
aF-0.1376281112737921
aF-0.1388888888888889
aF-0.14014598540145987
aF-0.141399416909621
aF-0.14264919941775836
aF-0.1438953488372093
aF-0.14078374455732948
aF-0.13768115942028986
aF-0.1389290882778582
aF-0.14017341040462428
aF-0.1414141414141414
aF-0.138328530259366
aF-0.13956834532374102
aF-0.14080459770114942
aF-0.13773314203730272
aF-0.13896848137535817
aF-0.13590844062947066
aF-0.13714285714285715
aF-0.1383737517831669
aF-0.13532763532763534
aF-0.13655761024182078
aF-0.1377840909090909
aF-0.1347517730496454
aF-0.1359773371104816
aF-0.13295615275813297
aF-0.134180790960452
aF-0.13540197461212977
aF-0.13661971830985917
aF-0.13361462728551335
aF-0.1348314606741573
aF-0.13183730715287517
aF-0.1330532212885154
aF-0.13706293706293707
aF-0.1340782122905028
aF-0.13528591352859135
aF-0.13649025069637882
aF-0.1376912378303199
aF-0.13472222222222222
aF-0.13592233009708737
aF-0.1371191135734072
aF-0.13831258644536654
aF-0.13535911602209943
aF-0.13655172413793104
aF-0.13774104683195593
aF-0.13892709766162312
aF-0.1401098901098901
aF-0.13717421124828533
aF-0.13424657534246576
aF-0.13132694938440492
aF-0.1325136612021858
aF-0.1296043656207367
aF-0.1307901907356948
aF-0.1346938775510204
aF-0.1358695652173913
aF-0.13704206241519673
aF-0.13821138211382114
aF-0.13937753721244925
aF-0.13648648648648648
aF-0.13765182186234817
aF-0.1347708894878706
aF-0.13189771197846567
aF-0.13306451612903225
aF-0.13020134228187918
aF-0.13136729222520108
aF-0.13253012048192772
aF-0.13368983957219252
aF-0.1348464619492657
aF-0.136
aF-0.13715046604527298
aF-0.13430851063829788
aF-0.13545816733067728
aF-0.13660477453580902
aF-0.13774834437086092
aF-0.1388888888888889
aF-0.14002642007926025
aF-0.14116094986807387
aF-0.1383399209486166
aF-0.1394736842105263
aF-0.14060446780551905
aF-0.14173228346456693
aF-0.13892529488859764
aF-0.13612565445026178
aF-0.13725490196078433
aF-0.13838120104438642
aF-0.1395045632333768
aF-0.13671875
aF-0.1378413524057217
aF-0.13896103896103895
aF-0.14007782101167315
aF-0.1411917098445596
aF-0.1423027166882277
aF-0.13953488372093023
aF-0.1406451612903226
aF-0.14175257731958762
aF-0.14285714285714285
aF-0.14395886889460155
aF-0.14120667522464697
aF-0.1423076923076923
aF-0.14340588988476313
aF-0.1445012787723785
aF-0.14559386973180077
aF-0.14668367346938777
aF-0.14777070063694267
aF-0.14885496183206107
aF-0.14993646759847523
aF-0.15101522842639595
aF-0.1520912547528517
aF-0.15569620253164557
aF-0.1529709228824273
aF-0.15404040404040403
aF-0.15132408575031525
aF-0.1486146095717884
aF-0.14968553459119496
aF-0.15326633165829145
aF-0.15056461731493098
aF-0.15162907268170425
aF-0.15269086357947434
aF-0.15375
aF-0.15106117353308365
aF-0.15211970074812967
aF-0.149439601494396
aF-0.15049751243781095
aF-0.1515527950310559
aF-0.1488833746898263
aF-0.14622057001239158
aF-0.14356435643564355
aF-0.14091470951792337
aF-0.1419753086419753
aF-0.14303329223181258
aF-0.14039408866995073
aF-0.14145141451414514
aF-0.13882063882063883
aF-0.1361963190184049
aF-0.13725490196078433
aF-0.1346389228886169
aF-0.13202933985330073
aF-0.12942612942612944
aF-0.12682926829268293
aF-0.1278928136419001
aF-0.12895377128953772
aF-0.13001215066828675
aF-0.13106796116504854
aF-0.1321212121212121
aF-0.12953995157384987
aF-0.13059250302297462
aF-0.1316425120772947
aF-0.12907117008443908
aF-0.13012048192771083
aF-0.12755716004813478
aF-0.125
aF-0.12605042016806722
aF-0.12709832134292565
aF-0.12455089820359282
aF-0.12200956937799043
aF-0.12305854241338113
aF-0.12052505966587113
aF-0.11799761620977355
aF-0.11547619047619048
aF-0.11296076099881094
aF-0.11401425178147269
aF-0.11150652431791222
aF-0.10900473933649289
aF-0.11005917159763313
aF-0.1111111111111111
aF-0.11216056670602124
aF-0.11320754716981132
aF-0.11425206124852769
aF-0.11176470588235295
aF-0.1128084606345476
aF-0.11032863849765258
aF-0.10785463071512309
aF-0.1053864168618267
aF-0.1064327485380117
aF-0.10397196261682243
aF-0.10501750291715285
aF-0.10606060606060606
aF-0.10360884749708964
aF-0.10116279069767442
aF-0.09872241579558652
aF-0.09976798143851508
aF-0.09733487833140209
aF-0.09837962962962964
aF-0.09942196531791908
aF-0.10046189376443418
aF-0.09803921568627451
aF-0.0956221198156682
aF-0.09666283084004602
aF-0.09770114942528736
aF-0.09873708381171067
aF-0.09977064220183486
aF-0.10080183276059565
aF-0.09839816933638444
aF-0.096
aF-0.09703196347031963
aF-0.09806157354618016
aF-0.09567198177676538
aF-0.09670079635949944
aF-0.09772727272727273
aF-0.09875141884222474
aF-0.09977324263038549
aF-0.10079275198187995
aF-0.09841628959276018
aF-0.09943502824858758
aF-0.10045146726862303
aF-0.10146561443066517
aF-0.0990990990990991
aF-0.09673790776152981
aF-0.09438202247191012
aF-0.0920314253647587
aF-0.0930493273542601
aF-0.0940649496080627
aF-0.09172259507829977
aF-0.09273743016759776
aF-0.09375
aF-0.0947603121516165
aF-0.09242761692650334
aF-0.09343715239154617
aF-0.09444444444444444
aF-0.09211986681465038
aF-0.09312638580931264
aF-0.09080841638981174
aF-0.08849557522123894
aF-0.08950276243093923
aF-0.08719646799116998
aF-0.08820286659316427
aF-0.08920704845814978
aF-0.08690869086908691
aF-0.08461538461538462
aF-0.08232711306256861
aF-0.08333333333333333
aF-0.08105147864184009
aF-0.0787746170678337
aF-0.07978142076502732
aF-0.08078602620087336
aF-0.08178844056706652
aF-0.07952069716775599
aF-0.08052230685527748
aF-0.0782608695652174
aF-0.07926167209554831
aF-0.0770065075921909
aF-0.0780065005417118
aF-0.07900432900432901
aF-0.08
aF-0.08099352051835854
aF-0.07874865156418555
aF-0.07650862068965517
aF-0.077502691065662
aF-0.07849462365591398
aF-0.079484425349087
aF-0.08047210300429185
aF-0.08145766345123258
aF-0.07922912205567452
aF-0.08021390374331551
aF-0.0811965811965812
aF-0.08217716115261472
aF-0.08315565031982942
aF-0.08413205537806177
aF-0.08191489361702127
aF-0.08289054197662062
aF-0.08067940552016985
aF-0.0784729586426299
aF-0.07627118644067797
aF-0.07407407407407407
aF-0.07188160676532769
aF-0.07286166842661035
aF-0.07383966244725738
aF-0.07481559536354057
aF-0.07263157894736842
aF-0.07360672975814932
aF-0.07457983193277311
aF-0.07240293809024134
aF-0.07023060796645703
aF-0.06806282722513089
aF-0.06589958158995816
aF-0.06374085684430512
aF-0.06471816283924843
aF-0.06569343065693431
aF-0.06354166666666666
aF-0.06451612903225806
aF-0.06548856548856549
aF-0.06645898234683281
aF-0.06742738589211618
aF-0.06528497409326425
aF-0.06625258799171843
aF-0.0672182006204757
aF-0.06818181818181818
aF-0.06914344685242518
aF-0.07010309278350516
aF-0.07106076210092688
aF-0.06893004115226338
aF-0.06680369989722508
aF-0.06776180698151951
aF-0.06871794871794872
aF-0.06967213114754098
aF-0.07062436028659161
aF-0.06850715746421268
aF-0.06639427987742594
aF-0.0673469387755102
aF-0.0652395514780836
aF-0.06619144602851323
aF-0.0671414038657172
aF-0.06808943089430894
aF-0.06598984771573604
aF-0.06389452332657201
aF-0.06484295845997974
aF-0.06275303643724696
aF-0.06370070778564206
aF-0.06464646464646465
aF-0.06559031281533804
aF-0.06653225806451613
aF-0.06747230614300101
aF-0.06841046277665996
aF-0.06633165829145729
aF-0.0642570281124498
aF-0.06519558676028084
aF-0.06312625250501001
aF-0.06406406406406406
aF-0.067
aaI1000
a.